	.arch armv8.4-a+fp16+sb+ssbs
	.build_version macos,  14, 0
	.text
	.align	2
	.globl __ZnwmPv
	.weak_definition __ZnwmPv
__ZnwmPv:
LFB87:
	sub	sp, sp, #16
LCFI0:
	str	x0, [sp, 8]
	str	x1, [sp]
	ldr	x0, [sp]
	add	sp, sp, 16
LCFI1:
	ret
LFE87:
	.align	2
	.globl __ZNSt11char_traitsIcE6lengthEPKc
	.weak_definition __ZNSt11char_traitsIcE6lengthEPKc
__ZNSt11char_traitsIcE6lengthEPKc:
LFB162:
	stp	x29, x30, [sp, -32]!
LCFI2:
	mov	x29, sp
LCFI3:
	str	x0, [x29, 24]
	mov	w0, 0
	and	w0, w0, 1
	cmp	w0, 0
	beq	L5
	ldr	x0, [x29, 24]
	bl	__ZN9__gnu_cxx11char_traitsIcE6lengthEPKc
	b	L6
L5:
	ldr	x0, [x29, 24]
	bl	_strlen
	nop
L6:
	ldp	x29, x30, [sp], 32
LCFI4:
	ret
LFE162:
	.cstring
	.align	3
lC0:
	.ascii "stoull\0"
	.text
	.align	2
	.globl __ZNSt7__cxx116stoullERKNS_12basic_stringIcSt11char_traitsIcESaIcEEEPmi
	.weak_definition __ZNSt7__cxx116stoullERKNS_12basic_stringIcSt11char_traitsIcESaIcEEEPmi
__ZNSt7__cxx116stoullERKNS_12basic_stringIcSt11char_traitsIcESaIcEEEPmi:
LFB1218:
	stp	x29, x30, [sp, -48]!
LCFI5:
	mov	x29, sp
LCFI6:
	str	x0, [x29, 40]
	str	x1, [x29, 32]
	str	w2, [x29, 28]
	ldr	x0, [x29, 40]
	bl	__ZNKSt7__cxx1112basic_stringIcSt11char_traitsIcESaIcEE5c_strEv
	ldr	w4, [x29, 28]
	ldr	x3, [x29, 32]
	mov	x2, x0
	adrp	x0, lC0@PAGE
	add	x1, x0, lC0@PAGEOFF;
	adrp	x0, _strtoull@GOTPAGE
	ldr	x0, [x0, _strtoull@GOTPAGEOFF]
	bl	__ZN9__gnu_cxx6__stoaIyycJiEEET0_PFT_PKT1_PPS3_DpT2_EPKcS5_PmS9_
	ldp	x29, x30, [sp], 48
LCFI7:
	ret
LFE1218:
	.zerofill __DATA,__bss,__ZStL8__ioinit,1,0
	.const
	.align	3
__ZL5max32:
	.xword	4294967295
	.text
	.align	2
	.globl __Z2rhy
__Z2rhy:
LFB2501:
	sub	sp, sp, #16
LCFI8:
	str	x0, [sp, 8]
	ldr	x0, [sp, 8]
	and	x0, x0, 4294967295
	add	sp, sp, 16
LCFI9:
	ret
LFE2501:
	.align	2
	.globl __Z2lhy
__Z2lhy:
LFB2502:
	sub	sp, sp, #16
LCFI10:
	str	x0, [sp, 8]
	ldr	x0, [sp, 8]
	lsr	x0, x0, 32
	add	sp, sp, 16
LCFI11:
	ret
LFE2502:
	.align	2
	.globl __Z3mulyy
__Z3mulyy:
LFB2504:
	stp	x29, x30, [sp, -176]!
LCFI12:
	mov	x29, sp
LCFI13:
	str	x19, [sp, 16]
LCFI14:
	str	x0, [x29, 40]
	str	x1, [x29, 32]
	ldr	x0, [x29, 40]
	bl	__Z2lhy
	str	x0, [x29, 168]
	ldr	x0, [x29, 40]
	bl	__Z2rhy
	str	x0, [x29, 160]
	ldr	x0, [x29, 32]
	bl	__Z2lhy
	str	x0, [x29, 152]
	ldr	x0, [x29, 32]
	bl	__Z2rhy
	str	x0, [x29, 144]
	ldr	x1, [x29, 168]
	ldr	x0, [x29, 152]
	mul	x0, x1, x0
	str	x0, [x29, 136]
	ldr	x1, [x29, 168]
	ldr	x0, [x29, 144]
	mul	x0, x1, x0
	str	x0, [x29, 128]
	ldr	x1, [x29, 160]
	ldr	x0, [x29, 152]
	mul	x0, x1, x0
	str	x0, [x29, 120]
	ldr	x1, [x29, 160]
	ldr	x0, [x29, 144]
	mul	x0, x1, x0
	str	x0, [x29, 112]
	ldr	x0, [x29, 112]
	bl	__Z2rhy
	str	x0, [x29, 104]
	ldr	x0, [x29, 128]
	bl	__Z2rhy
	mov	x19, x0
	ldr	x0, [x29, 120]
	bl	__Z2rhy
	add	x19, x19, x0
	ldr	x0, [x29, 112]
	bl	__Z2lhy
	add	x0, x19, x0
	str	x0, [x29, 96]
	ldr	x0, [x29, 136]
	bl	__Z2rhy
	mov	x19, x0
	ldr	x0, [x29, 128]
	bl	__Z2lhy
	add	x19, x19, x0
	ldr	x0, [x29, 120]
	bl	__Z2lhy
	add	x19, x19, x0
	ldr	x0, [x29, 96]
	bl	__Z2lhy
	add	x0, x19, x0
	str	x0, [x29, 88]
	ldr	x0, [x29, 136]
	bl	__Z2lhy
	str	x0, [x29, 80]
	ldr	x0, [x29, 80]
	lsl	x1, x0, 32
	ldr	x0, [x29, 88]
	add	x0, x1, x0
	str	x0, [x29, 56]
	ldr	x0, [x29, 96]
	lsl	x1, x0, 32
	ldr	x0, [x29, 104]
	add	x0, x1, x0
	str	x0, [x29, 48]
	add	x2, x29, 56
	add	x1, x29, 48
	add	x0, x29, 64
	bl	__ZNSt4pairIyyEC1IyyLb1EEERKyS3_
	ldp	x0, x1, [x29, 64]
	ldr	x19, [sp, 16]
	ldp	x29, x30, [sp], 176
LCFI15:
	ret
LFE2504:
	.align	2
	.globl __Z2geRKSt6vectorIySaIyEES3_
__Z2geRKSt6vectorIySaIyEES3_:
LFB2509:
	stp	x29, x30, [sp, -64]!
LCFI16:
	mov	x29, sp
LCFI17:
	str	x19, [sp, 16]
LCFI18:
	str	x0, [x29, 40]
	str	x1, [x29, 32]
	ldr	x0, [x29, 40]
	bl	__ZNKSt6vectorIySaIyEE4sizeEv
	mov	x19, x0
	ldr	x0, [x29, 32]
	bl	__ZNKSt6vectorIySaIyEE4sizeEv
	cmp	x19, x0
	cset	w0, ne
	and	w0, w0, 255
	and	w0, w0, 1
	cmp	w0, 0
	beq	L16
	ldr	x0, [x29, 40]
	bl	__ZNKSt6vectorIySaIyEE4sizeEv
	mov	x19, x0
	ldr	x0, [x29, 32]
	bl	__ZNKSt6vectorIySaIyEE4sizeEv
	cmp	x19, x0
	cset	w0, hi
	and	w0, w0, 255
	b	L17
L16:
	ldr	x0, [x29, 40]
	bl	__ZNKSt6vectorIySaIyEE4sizeEv
	str	x0, [x29, 56]
	b	L18
L20:
	ldr	x0, [x29, 56]
	sub	x0, x0, #1
	mov	x1, x0
	ldr	x0, [x29, 40]
	bl	__ZNKSt6vectorIySaIyEEixEm
	ldr	x19, [x0]
	ldr	x0, [x29, 56]
	sub	x0, x0, #1
	mov	x1, x0
	ldr	x0, [x29, 32]
	bl	__ZNKSt6vectorIySaIyEEixEm
	ldr	x0, [x0]
	cmp	x19, x0
	cset	w0, ne
	and	w0, w0, 255
	and	w0, w0, 1
	cmp	w0, 0
	beq	L19
	ldr	x0, [x29, 56]
	sub	x0, x0, #1
	mov	x1, x0
	ldr	x0, [x29, 40]
	bl	__ZNKSt6vectorIySaIyEEixEm
	ldr	x19, [x0]
	ldr	x0, [x29, 56]
	sub	x0, x0, #1
	mov	x1, x0
	ldr	x0, [x29, 32]
	bl	__ZNKSt6vectorIySaIyEEixEm
	ldr	x0, [x0]
	cmp	x19, x0
	cset	w0, hi
	and	w0, w0, 255
	b	L17
L19:
	ldr	x0, [x29, 56]
	sub	x0, x0, #1
	str	x0, [x29, 56]
L18:
	ldr	x0, [x29, 56]
	cmp	x0, 0
	bne	L20
	mov	w0, 1
L17:
	ldr	x19, [sp, 16]
	ldp	x29, x30, [sp], 64
LCFI19:
	ret
LFE2509:
	.align	2
	.globl __ZSt3getILm0EyyEOKNSt13tuple_elementIXT_ESt4pairIT0_T1_EE4typeEOKS4_
	.weak_definition __ZSt3getILm0EyyEOKNSt13tuple_elementIXT_ESt4pairIT0_T1_EE4typeEOKS4_
__ZSt3getILm0EyyEOKNSt13tuple_elementIXT_ESt4pairIT0_T1_EE4typeEOKS4_:
LFB2511:
	stp	x29, x30, [sp, -32]!
LCFI20:
	mov	x29, sp
LCFI21:
	str	x0, [x29, 24]
	ldr	x0, [x29, 24]
	bl	__ZSt4moveIRKSt4pairIyyEEONSt16remove_referenceIT_E4typeEOS5_
	bl	__ZNSt10__pair_getILm0EE16__const_move_getIyyEEOKT_OKSt4pairIS2_T0_E
	ldp	x29, x30, [sp], 32
LCFI22:
	ret
LFE2511:
	.align	2
	.globl __ZSt4moveIRKSt4pairIyyEEONSt16remove_referenceIT_E4typeEOS5_
	.weak_definition __ZSt4moveIRKSt4pairIyyEEONSt16remove_referenceIT_E4typeEOS5_
__ZSt4moveIRKSt4pairIyyEEONSt16remove_referenceIT_E4typeEOS5_:
LFB2512:
	sub	sp, sp, #16
LCFI23:
	str	x0, [sp, 8]
	ldr	x0, [sp, 8]
	add	sp, sp, 16
LCFI24:
	ret
LFE2512:
	.align	2
	.globl __ZNSt10__pair_getILm0EE16__const_move_getIyyEEOKT_OKSt4pairIS2_T0_E
	.weak_definition __ZNSt10__pair_getILm0EE16__const_move_getIyyEEOKT_OKSt4pairIS2_T0_E
__ZNSt10__pair_getILm0EE16__const_move_getIyyEEOKT_OKSt4pairIS2_T0_E:
LFB2513:
	stp	x29, x30, [sp, -32]!
LCFI25:
	mov	x29, sp
LCFI26:
	str	x0, [x29, 24]
	ldr	x0, [x29, 24]
	bl	__ZSt7forwardIKyEOT_RNSt16remove_referenceIS1_E4typeE
	ldp	x29, x30, [sp], 32
LCFI27:
	ret
LFE2513:
	.align	2
	.globl __ZSt7forwardIKyEOT_RNSt16remove_referenceIS1_E4typeE
	.weak_definition __ZSt7forwardIKyEOT_RNSt16remove_referenceIS1_E4typeE
__ZSt7forwardIKyEOT_RNSt16remove_referenceIS1_E4typeE:
LFB2514:
	sub	sp, sp, #16
LCFI28:
	str	x0, [sp, 8]
	ldr	x0, [sp, 8]
	add	sp, sp, 16
LCFI29:
	ret
LFE2514:
	.align	2
	.globl __ZSt3getILm1EyyEOKNSt13tuple_elementIXT_ESt4pairIT0_T1_EE4typeEOKS4_
	.weak_definition __ZSt3getILm1EyyEOKNSt13tuple_elementIXT_ESt4pairIT0_T1_EE4typeEOKS4_
__ZSt3getILm1EyyEOKNSt13tuple_elementIXT_ESt4pairIT0_T1_EE4typeEOKS4_:
LFB2515:
	stp	x29, x30, [sp, -32]!
LCFI30:
	mov	x29, sp
LCFI31:
	str	x0, [x29, 24]
	ldr	x0, [x29, 24]
	bl	__ZSt4moveIRKSt4pairIyyEEONSt16remove_referenceIT_E4typeEOS5_
	bl	__ZNSt10__pair_getILm1EE16__const_move_getIyyEEOKT0_OKSt4pairIT_S2_E
	ldp	x29, x30, [sp], 32
LCFI32:
	ret
LFE2515:
	.align	2
	.globl __ZNSt10__pair_getILm1EE16__const_move_getIyyEEOKT0_OKSt4pairIT_S2_E
	.weak_definition __ZNSt10__pair_getILm1EE16__const_move_getIyyEEOKT0_OKSt4pairIT_S2_E
__ZNSt10__pair_getILm1EE16__const_move_getIyyEEOKT0_OKSt4pairIT_S2_E:
LFB2516:
	stp	x29, x30, [sp, -32]!
LCFI33:
	mov	x29, sp
LCFI34:
	str	x0, [x29, 24]
	ldr	x0, [x29, 24]
	add	x0, x0, 8
	bl	__ZSt7forwardIKyEOT_RNSt16remove_referenceIS1_E4typeE
	ldp	x29, x30, [sp], 32
LCFI35:
	ret
LFE2516:
	.align	2
	.globl __Z3mulRKSt6vectorIySaIyEEyRS1_
__Z3mulRKSt6vectorIySaIyEEyRS1_:
LFB2510:
	stp	x29, x30, [sp, -128]!
LCFI36:
	mov	x29, sp
LCFI37:
	str	x19, [sp, 16]
LCFI38:
	str	x0, [x29, 56]
	str	x1, [x29, 48]
	str	x2, [x29, 40]
	str	xzr, [x29, 88]
	ldr	x0, [x29, 40]
	bl	__ZNSt6vectorIySaIyEE5clearEv
	str	wzr, [x29, 124]
	b	L34
L37:
	ldrsw	x0, [x29, 124]
	mov	x1, x0
	ldr	x0, [x29, 56]
	bl	__ZNKSt6vectorIySaIyEEixEm
	ldr	x0, [x0]
	ldr	x1, [x29, 48]
	bl	__Z3mulyy
	stp	x0, x1, [x29, 72]
	add	x0, x29, 72
	bl	__ZSt3getILm0EyyEOKNSt13tuple_elementIXT_ESt4pairIT0_T1_EE4typeEOKS4_
	str	x0, [x29, 112]
	add	x0, x29, 72
	bl	__ZSt3getILm1EyyEOKNSt13tuple_elementIXT_ESt4pairIT0_T1_EE4typeEOKS4_
	str	x0, [x29, 104]
	ldr	x0, [x29, 112]
	ldr	x1, [x0]
	ldr	x0, [x29, 88]
	add	x0, x1, x0
	str	x0, [x29, 96]
	add	x0, x29, 96
	mov	x1, x0
	ldr	x0, [x29, 40]
	bl	__ZNSt6vectorIySaIyEE9push_backEOy
	ldrsw	x0, [x29, 124]
	mov	x1, x0
	ldr	x0, [x29, 40]
	bl	__ZNSt6vectorIySaIyEEixEm
	ldr	x1, [x0]
	ldr	x0, [x29, 88]
	cmp	x1, x0
	cset	w0, cc
	and	w0, w0, 255
	and	w0, w0, 1
	cmp	w0, 0
	beq	L35
	ldr	x0, [x29, 104]
	ldr	x0, [x0]
	add	x0, x0, 1
	str	x0, [x29, 88]
	b	L36
L35:
	ldr	x0, [x29, 104]
	ldr	x0, [x0]
	str	x0, [x29, 88]
L36:
	ldr	w0, [x29, 124]
	add	w0, w0, 1
	str	w0, [x29, 124]
L34:
	ldrsw	x19, [x29, 124]
	ldr	x0, [x29, 56]
	bl	__ZNKSt6vectorIySaIyEE4sizeEv
	cmp	x19, x0
	cset	w0, cc
	and	w0, w0, 255
	and	w0, w0, 1
	cmp	w0, 0
	bne	L37
	ldr	x0, [x29, 88]
	cmp	x0, 0
	beq	L39
	add	x0, x29, 88
	mov	x1, x0
	ldr	x0, [x29, 40]
	bl	__ZNSt6vectorIySaIyEE9push_backERKy
L39:
	nop
	ldr	x19, [sp, 16]
	ldp	x29, x30, [sp], 128
LCFI39:
	ret
LFE2510:
	.align	2
	.globl __Z5muleqRSt6vectorIySaIyEEy
__Z5muleqRSt6vectorIySaIyEEy:
LFB2517:
	stp	x29, x30, [sp, -96]!
LCFI40:
	mov	x29, sp
LCFI41:
	str	x19, [sp, 16]
LCFI42:
	str	x0, [x29, 40]
	str	x1, [x29, 32]
	str	xzr, [x29, 64]
	str	wzr, [x29, 92]
	b	L41
L44:
	ldrsw	x0, [x29, 92]
	mov	x1, x0
	ldr	x0, [x29, 40]
	bl	__ZNSt6vectorIySaIyEEixEm
	ldr	x0, [x0]
	ldr	x1, [x29, 32]
	bl	__Z3mulyy
	stp	x0, x1, [x29, 48]
	add	x0, x29, 48
	bl	__ZSt3getILm0EyyEOKNSt13tuple_elementIXT_ESt4pairIT0_T1_EE4typeEOKS4_
	str	x0, [x29, 80]
	add	x0, x29, 48
	bl	__ZSt3getILm1EyyEOKNSt13tuple_elementIXT_ESt4pairIT0_T1_EE4typeEOKS4_
	str	x0, [x29, 72]
	ldr	x0, [x29, 80]
	ldr	x1, [x0]
	ldr	x0, [x29, 64]
	add	x19, x1, x0
	ldrsw	x0, [x29, 92]
	mov	x1, x0
	ldr	x0, [x29, 40]
	bl	__ZNSt6vectorIySaIyEEixEm
	str	x19, [x0]
	ldrsw	x0, [x29, 92]
	mov	x1, x0
	ldr	x0, [x29, 40]
	bl	__ZNSt6vectorIySaIyEEixEm
	ldr	x1, [x0]
	ldr	x0, [x29, 64]
	cmp	x1, x0
	cset	w0, cc
	and	w0, w0, 255
	and	w0, w0, 1
	cmp	w0, 0
	beq	L42
	ldr	x0, [x29, 72]
	ldr	x0, [x0]
	add	x0, x0, 1
	str	x0, [x29, 64]
	b	L43
L42:
	ldr	x0, [x29, 72]
	ldr	x0, [x0]
	str	x0, [x29, 64]
L43:
	ldr	w0, [x29, 92]
	add	w0, w0, 1
	str	w0, [x29, 92]
L41:
	ldrsw	x19, [x29, 92]
	ldr	x0, [x29, 40]
	bl	__ZNKSt6vectorIySaIyEE4sizeEv
	cmp	x19, x0
	cset	w0, cc
	and	w0, w0, 255
	and	w0, w0, 1
	cmp	w0, 0
	bne	L44
	ldr	x0, [x29, 64]
	cmp	x0, 0
	beq	L46
	add	x0, x29, 64
	mov	x1, x0
	ldr	x0, [x29, 40]
	bl	__ZNSt6vectorIySaIyEE9push_backERKy
L46:
	nop
	ldr	x19, [sp, 16]
	ldp	x29, x30, [sp], 96
LCFI43:
	ret
LFE2517:
	.cstring
	.align	3
lC1:
	.ascii "ge(a, b)\0"
	.align	3
lC2:
	.ascii "pi.cpp\0"
	.align	3
lC3:
	.ascii "diffeq\0"
	.align	3
lC4:
	.ascii "a[i + 1] != 0\0"
	.text
	.align	2
	.globl __Z6diffeqRSt6vectorIySaIyEERKS1_
__Z6diffeqRSt6vectorIySaIyEERKS1_:
LFB2518:
	stp	x29, x30, [sp, -64]!
LCFI44:
	mov	x29, sp
LCFI45:
	str	x19, [sp, 16]
LCFI46:
	str	x0, [x29, 40]
	str	x1, [x29, 32]
	str	xzr, [x29, 48]
	ldr	x1, [x29, 32]
	ldr	x0, [x29, 40]
	bl	__Z2geRKSt6vectorIySaIyEES3_
	eor	w0, w0, 1
	and	w0, w0, 255
	and	x0, x0, 255
	cmp	x0, 0
	beq	L48
	adrp	x0, lC1@PAGE
	add	x3, x0, lC1@PAGEOFF;
	mov	w2, 99
	adrp	x0, lC2@PAGE
	add	x1, x0, lC2@PAGEOFF;
	adrp	x0, lC3@PAGE
	add	x0, x0, lC3@PAGEOFF;
	bl	___assert_rtn
L48:
	str	xzr, [x29, 56]
	b	L49
L53:
	ldr	x1, [x29, 56]
	ldr	x0, [x29, 40]
	bl	__ZNSt6vectorIySaIyEEixEm
	ldr	x19, [x0]
	ldr	x1, [x29, 56]
	ldr	x0, [x29, 32]
	bl	__ZNKSt6vectorIySaIyEEixEm
	ldr	x0, [x0]
	cmp	x19, x0
	cset	w0, cs
	and	w0, w0, 255
	and	w0, w0, 1
	cmp	w0, 0
	beq	L50
	ldr	x1, [x29, 56]
	ldr	x0, [x29, 32]
	bl	__ZNKSt6vectorIySaIyEEixEm
	ldr	x19, [x0]
	ldr	x1, [x29, 56]
	ldr	x0, [x29, 40]
	bl	__ZNSt6vectorIySaIyEEixEm
	ldr	x1, [x0]
	sub	x1, x1, x19
	str	x1, [x0]
	b	L51
L50:
	ldr	x0, [x29, 56]
	add	x0, x0, 1
	mov	x1, x0
	ldr	x0, [x29, 40]
	bl	__ZNSt6vectorIySaIyEEixEm
	ldr	x0, [x0]
	cmp	x0, 0
	cset	w0, eq
	and	w0, w0, 255
	and	x0, x0, 255
	cmp	x0, 0
	beq	L52
	adrp	x0, lC4@PAGE
	add	x3, x0, lC4@PAGEOFF;
	mov	w2, 105
	adrp	x0, lC2@PAGE
	add	x1, x0, lC2@PAGEOFF;
	adrp	x0, lC3@PAGE
	add	x0, x0, lC3@PAGEOFF;
	bl	___assert_rtn
L52:
	ldr	x0, [x29, 56]
	add	x0, x0, 1
	mov	x1, x0
	ldr	x0, [x29, 40]
	bl	__ZNSt6vectorIySaIyEEixEm
	ldr	x1, [x0]
	sub	x1, x1, #1
	str	x1, [x0]
	ldr	x1, [x29, 56]
	ldr	x0, [x29, 32]
	bl	__ZNKSt6vectorIySaIyEEixEm
	ldr	x19, [x0]
	ldr	x1, [x29, 56]
	ldr	x0, [x29, 40]
	bl	__ZNSt6vectorIySaIyEEixEm
	ldr	x1, [x0]
	sub	x1, x1, x19
	str	x1, [x0]
L51:
	ldr	x0, [x29, 56]
	add	x0, x0, 1
	str	x0, [x29, 56]
L49:
	ldr	x0, [x29, 32]
	bl	__ZNKSt6vectorIySaIyEE4sizeEv
	mov	x1, x0
	ldr	x0, [x29, 56]
	cmp	x0, x1
	cset	w0, cc
	and	w0, w0, 255
	and	w0, w0, 1
	cmp	w0, 0
	bne	L53
	b	L54
L57:
	ldr	x0, [x29, 40]
	bl	__ZNSt6vectorIySaIyEE8pop_backEv
L54:
	ldr	x0, [x29, 40]
	bl	__ZNSt6vectorIySaIyEE4backEv
	ldr	x0, [x0]
	cmp	x0, 0
	bne	L55
	ldr	x0, [x29, 40]
	bl	__ZNKSt6vectorIySaIyEE4sizeEv
	cmp	x0, 1
	bls	L55
	mov	w0, 1
	b	L56
L55:
	mov	w0, 0
L56:
	and	w0, w0, 1
	cmp	w0, 0
	bne	L57
	nop
	nop
	ldr	x19, [sp, 16]
	ldp	x29, x30, [sp], 64
LCFI47:
	ret
LFE2518:
	.align	2
	.globl __Z5sumeqRSt6vectorIySaIyEERKS1_
__Z5sumeqRSt6vectorIySaIyEERKS1_:
LFB2519:
	stp	x29, x30, [sp, -96]!
LCFI48:
	mov	x29, sp
LCFI49:
	str	x19, [sp, 16]
LCFI50:
	str	x0, [x29, 40]
	str	x1, [x29, 32]
	str	xzr, [x29, 88]
	ldr	x0, [x29, 40]
	bl	__ZNKSt6vectorIySaIyEE4sizeEv
	mov	x19, x0
	ldr	x0, [x29, 32]
	bl	__ZNKSt6vectorIySaIyEE4sizeEv
	cmp	x19, x0
	bcc	L59
	ldr	x0, [x29, 40]
	bl	__ZNKSt6vectorIySaIyEE4sizeEv
	b	L60
L59:
	ldr	x0, [x29, 32]
	bl	__ZNKSt6vectorIySaIyEE4sizeEv
L60:
	str	x0, [x29, 72]
	str	wzr, [x29, 84]
	b	L61
L73:
	ldrsw	x19, [x29, 84]
	ldr	x0, [x29, 40]
	bl	__ZNKSt6vectorIySaIyEE4sizeEv
	cmp	x19, x0
	cset	w0, eq
	and	w0, w0, 255
	and	w0, w0, 1
	cmp	w0, 0
	beq	L62
	ldrsw	x0, [x29, 84]
	mov	x1, x0
	ldr	x0, [x29, 32]
	bl	__ZNKSt6vectorIySaIyEEixEm
	ldr	x1, [x0]
	ldr	x0, [x29, 88]
	add	x0, x1, x0
	str	x0, [x29, 56]
	add	x0, x29, 56
	mov	x1, x0
	ldr	x0, [x29, 40]
	bl	__ZNSt6vectorIySaIyEE9push_backEOy
	ldr	x0, [x29, 88]
	cmp	x0, 1
	bne	L63
	ldrsw	x0, [x29, 84]
	mov	x1, x0
	ldr	x0, [x29, 40]
	bl	__ZNSt6vectorIySaIyEEixEm
	ldr	x0, [x0]
	cmp	x0, 0
	beq	L63
	mov	w0, 1
	b	L64
L63:
	mov	w0, 0
L64:
	and	w0, w0, 1
	cmp	w0, 0
	beq	L65
	str	xzr, [x29, 88]
	b	L65
L62:
	ldrsw	x19, [x29, 84]
	ldr	x0, [x29, 32]
	bl	__ZNKSt6vectorIySaIyEE4sizeEv
	cmp	x19, x0
	cset	w0, cs
	and	w0, w0, 255
	and	w0, w0, 1
	cmp	w0, 0
	beq	L66
	ldrsw	x0, [x29, 84]
	mov	x1, x0
	ldr	x0, [x29, 40]
	bl	__ZNSt6vectorIySaIyEEixEm
	ldr	x2, [x0]
	ldr	x1, [x29, 88]
	add	x1, x2, x1
	str	x1, [x0]
	ldr	x0, [x29, 88]
	cmp	x0, 1
	bne	L67
	ldrsw	x0, [x29, 84]
	mov	x1, x0
	ldr	x0, [x29, 40]
	bl	__ZNSt6vectorIySaIyEEixEm
	ldr	x0, [x0]
	cmp	x0, 0
	beq	L67
	mov	w0, 1
	b	L68
L67:
	mov	w0, 0
L68:
	and	w0, w0, 1
	cmp	w0, 0
	beq	L65
	str	xzr, [x29, 88]
	b	L65
L66:
	ldrsw	x0, [x29, 84]
	mov	x1, x0
	ldr	x0, [x29, 40]
	bl	__ZNSt6vectorIySaIyEEixEm
	ldr	x0, [x0]
	str	x0, [x29, 64]
	ldrsw	x0, [x29, 84]
	mov	x1, x0
	ldr	x0, [x29, 32]
	bl	__ZNKSt6vectorIySaIyEEixEm
	ldr	x19, [x0]
	ldrsw	x0, [x29, 84]
	mov	x1, x0
	ldr	x0, [x29, 40]
	bl	__ZNSt6vectorIySaIyEEixEm
	ldr	x1, [x0]
	add	x1, x19, x1
	str	x1, [x0]
	ldrsw	x0, [x29, 84]
	mov	x1, x0
	ldr	x0, [x29, 40]
	bl	__ZNSt6vectorIySaIyEEixEm
	ldr	x2, [x0]
	ldr	x1, [x29, 88]
	add	x1, x2, x1
	str	x1, [x0]
	ldrsw	x0, [x29, 84]
	mov	x1, x0
	ldr	x0, [x29, 40]
	bl	__ZNSt6vectorIySaIyEEixEm
	ldr	x0, [x0]
	ldr	x1, [x29, 64]
	cmp	x1, x0
	bcc	L69
	ldrsw	x0, [x29, 84]
	mov	x1, x0
	ldr	x0, [x29, 40]
	bl	__ZNSt6vectorIySaIyEEixEm
	ldr	x0, [x0]
	ldr	x1, [x29, 64]
	cmp	x1, x0
	bne	L70
	ldr	x0, [x29, 88]
	cmp	x0, 0
	bne	L70
L69:
	mov	w0, 1
	b	L71
L70:
	mov	w0, 0
L71:
	and	w0, w0, 1
	cmp	w0, 0
	beq	L72
	str	xzr, [x29, 88]
	b	L65
L72:
	mov	x0, 1
	str	x0, [x29, 88]
L65:
	ldr	w0, [x29, 84]
	add	w0, w0, 1
	str	w0, [x29, 84]
L61:
	ldrsw	x0, [x29, 84]
	ldr	x1, [x29, 72]
	cmp	x1, x0
	bhi	L73
	nop
	nop
	ldr	x19, [sp, 16]
	ldp	x29, x30, [sp], 96
LCFI51:
	ret
LFE2519:
	.align	2
	.globl __Z5pruneRSt6vectorIySaIyEES2_S2_
__Z5pruneRSt6vectorIySaIyEES2_S2_:
LFB2520:
	stp	x29, x30, [sp, -96]!
LCFI52:
	mov	x29, sp
LCFI53:
	str	x0, [x29, 40]
	str	x1, [x29, 32]
	str	x2, [x29, 24]
	mov	x1, 0
	ldr	x0, [x29, 40]
	bl	__ZNSt6vectorIySaIyEEixEm
	ldr	x0, [x0]
	cmp	x0, 0
	bne	L75
	mov	x1, 0
	ldr	x0, [x29, 32]
	bl	__ZNSt6vectorIySaIyEEixEm
	ldr	x0, [x0]
	cmp	x0, 0
	bne	L75
	mov	x1, 0
	ldr	x0, [x29, 24]
	bl	__ZNSt6vectorIySaIyEEixEm
	ldr	x0, [x0]
	cmp	x0, 0
	bne	L75
	mov	w0, 1
	b	L76
L75:
	mov	w0, 0
L76:
	and	w0, w0, 1
	cmp	w0, 0
	beq	L77
	ldr	x0, [x29, 40]
	bl	__ZNSt6vectorIySaIyEE5beginEv
	str	x0, [x29, 56]
	add	x1, x29, 56
	add	x0, x29, 48
	bl	__ZN9__gnu_cxx17__normal_iteratorIPKySt6vectorIySaIyEEEC1IPyvEERKNS0_IT_S5_EE
	ldr	x1, [x29, 48]
	ldr	x0, [x29, 40]
	bl	__ZNSt6vectorIySaIyEE5eraseEN9__gnu_cxx17__normal_iteratorIPKyS1_EE
	ldr	x0, [x29, 32]
	bl	__ZNSt6vectorIySaIyEE5beginEv
	str	x0, [x29, 72]
	add	x1, x29, 72
	add	x0, x29, 64
	bl	__ZN9__gnu_cxx17__normal_iteratorIPKySt6vectorIySaIyEEEC1IPyvEERKNS0_IT_S5_EE
	ldr	x1, [x29, 64]
	ldr	x0, [x29, 32]
	bl	__ZNSt6vectorIySaIyEE5eraseEN9__gnu_cxx17__normal_iteratorIPKyS1_EE
	ldr	x0, [x29, 24]
	bl	__ZNSt6vectorIySaIyEE5beginEv
	str	x0, [x29, 88]
	add	x1, x29, 88
	add	x0, x29, 80
	bl	__ZN9__gnu_cxx17__normal_iteratorIPKySt6vectorIySaIyEEEC1IPyvEERKNS0_IT_S5_EE
	ldr	x1, [x29, 80]
	ldr	x0, [x29, 24]
	bl	__ZNSt6vectorIySaIyEE5eraseEN9__gnu_cxx17__normal_iteratorIPKyS1_EE
	mov	w0, 1
	b	L78
L77:
	mov	w0, 0
L78:
	ldp	x29, x30, [sp], 96
LCFI54:
	ret
LFE2520:
	.cstring
	.align	3
lC5:
	.ascii "argc == 2\0"
	.align	3
lC6:
	.ascii "main\0"
	.align	3
lC7:
	.ascii "N <= 369'000'000UL\0"
	.align	3
lC8:
	.ascii "!prune(n0, n1, n2)\0"
	.align	3
lC9:
	.ascii "y < 10\0"
	.text
	.align	2
	.globl _main
_main:
LFB2521:
	sub	sp, sp, #912
LCFI55:
	stp	x29, x30, [sp]
LCFI56:
	mov	x29, sp
LCFI57:
	stp	x19, x20, [sp, 16]
	stp	x21, x22, [sp, 32]
	stp	x23, x24, [sp, 48]
	stp	x25, x26, [sp, 64]
	str	x27, [sp, 80]
LCFI58:
	str	w0, [x29, 124]
	str	x1, [x29, 112]
	ldr	w0, [x29, 124]
	cmp	w0, 2
	cset	w0, ne
	and	w0, w0, 255
	and	x0, x0, 255
	cmp	x0, 0
	beq	L80
	adrp	x0, lC5@PAGE
	add	x3, x0, lC5@PAGEOFF;
	mov	w2, 155
	adrp	x0, lC2@PAGE
	add	x1, x0, lC2@PAGEOFF;
	adrp	x0, lC6@PAGE
	add	x0, x0, lC6@PAGEOFF;
LEHB0:
	bl	___assert_rtn
LEHE0:
L80:
	ldr	x0, [x29, 112]
	add	x0, x0, 8
	ldr	x1, [x0]
	add	x0, x29, 680
	str	x0, [x29, 840]
	nop
	nop
	add	x2, x29, 680
	add	x0, x29, 648
LEHB1:
	bl	__ZNSt7__cxx1112basic_stringIcSt11char_traitsIcESaIcEEC1IS3_EEPKcRKS3_
LEHE1:
	add	x0, x29, 648
	mov	w2, 10
	mov	x1, 0
LEHB2:
	bl	__ZNSt7__cxx116stoullERKNS_12basic_stringIcSt11char_traitsIcESaIcEEEPmi
LEHE2:
	str	x0, [x29, 888]
	add	x0, x29, 648
	bl	__ZNSt7__cxx1112basic_stringIcSt11char_traitsIcESaIcEED1Ev
	add	x0, x29, 680
	bl	__ZNSt15__new_allocatorIcED2Ev
	nop
	ldr	x1, [x29, 888]
	mov	x0, 32320
	movk	x0, 0x15fe, lsl 16
	cmp	x1, x0
	cset	w0, hi
	and	w0, w0, 255
	and	x0, x0, 255
	cmp	x0, 0
	beq	L81
	adrp	x0, lC7@PAGE
	add	x3, x0, lC7@PAGEOFF;
	mov	w2, 158
	adrp	x0, lC2@PAGE
	add	x1, x0, lC2@PAGEOFF;
	adrp	x0, lC6@PAGE
	add	x0, x0, lC6@PAGEOFF;
LEHB3:
	bl	___assert_rtn
L81:
	add	x0, x29, 256
	bl	__ZNSt7__cxx1118basic_stringstreamIcSt11char_traitsIcESaIcEEC1Ev
LEHE3:
	mov	x0, 1
	str	x0, [x29, 688]
	add	x0, x29, 688
	str	x0, [x29, 96]
	mov	x0, 1
	str	x0, [x29, 104]
	add	x0, x29, 696
	str	x0, [x29, 832]
	nop
	nop
	add	x1, x29, 696
	add	x0, x29, 232
	mov	x3, x1
	ldp	x1, x2, [x29, 96]
LEHB4:
	bl	__ZNSt6vectorIySaIyEEC1ESt16initializer_listIyERKS0_
LEHE4:
	add	x0, x29, 696
	bl	__ZNSt15__new_allocatorIyED2Ev
	nop
	str	xzr, [x29, 704]
	add	x0, x29, 704
	mov	x26, x0
	mov	x27, 1
	add	x0, x29, 712
	str	x0, [x29, 824]
	nop
	nop
	add	x1, x29, 712
	add	x0, x29, 208
	mov	x3, x1
	mov	x1, x26
	mov	x2, x27
LEHB5:
	bl	__ZNSt6vectorIySaIyEEC1ESt16initializer_listIyERKS0_
LEHE5:
	add	x0, x29, 712
	bl	__ZNSt15__new_allocatorIyED2Ev
	nop
	mov	x0, 1
	str	x0, [x29, 720]
	add	x0, x29, 720
	mov	x24, x0
	mov	x25, 1
	add	x0, x29, 728
	str	x0, [x29, 816]
	nop
	nop
	add	x1, x29, 728
	add	x0, x29, 184
	mov	x3, x1
	mov	x1, x24
	mov	x2, x25
LEHB6:
	bl	__ZNSt6vectorIySaIyEEC1ESt16initializer_listIyERKS0_
LEHE6:
	add	x0, x29, 728
	bl	__ZNSt15__new_allocatorIyED2Ev
	nop
	str	xzr, [x29, 736]
	add	x0, x29, 736
	mov	x22, x0
	mov	x23, 1
	add	x0, x29, 744
	str	x0, [x29, 808]
	nop
	nop
	add	x1, x29, 744
	add	x0, x29, 160
	mov	x3, x1
	mov	x1, x22
	mov	x2, x23
LEHB7:
	bl	__ZNSt6vectorIySaIyEEC1ESt16initializer_listIyERKS0_
LEHE7:
	add	x0, x29, 744
	bl	__ZNSt15__new_allocatorIyED2Ev
	nop
	str	xzr, [x29, 752]
	add	x0, x29, 752
	mov	x20, x0
	mov	x21, 1
	add	x0, x29, 760
	str	x0, [x29, 800]
	nop
	nop
	add	x1, x29, 760
	add	x0, x29, 136
	mov	x3, x1
	mov	x1, x20
	mov	x2, x21
LEHB8:
	bl	__ZNSt6vectorIySaIyEEC1ESt16initializer_listIyERKS0_
LEHE8:
	add	x0, x29, 760
	bl	__ZNSt15__new_allocatorIyED2Ev
	nop
	mov	x0, 1
	str	x0, [x29, 904]
	b	L82
L88:
	add	x2, x29, 184
	add	x1, x29, 208
	add	x0, x29, 232
LEHB9:
	bl	__Z5pruneRSt6vectorIySaIyEES2_S2_
	and	w0, w0, 1
	cmp	w0, 0
	beq	L83
	add	x2, x29, 184
	add	x1, x29, 208
	add	x0, x29, 232
	bl	__Z5pruneRSt6vectorIySaIyEES2_S2_
	and	x0, x0, 255
	cmp	x0, 0
	beq	L83
	adrp	x0, lC8@PAGE
	add	x3, x0, lC8@PAGEOFF;
	mov	w2, 170
	adrp	x0, lC2@PAGE
	add	x1, x0, lC2@PAGEOFF;
	adrp	x0, lC6@PAGE
	add	x0, x0, lC6@PAGEOFF;
	bl	___assert_rtn
L83:
	ldr	x2, [x29, 904]
	lsr	x1, x2, 3
	mov	x0, 63439
	movk	x0, 0xe353, lsl 16
	movk	x0, 0x9ba5, lsl 32
	movk	x0, 0x20c4, lsl 48
	umulh	x0, x1, x0
	lsr	x1, x0, 4
	mov	x0, x1
	lsl	x0, x0, 2
	add	x0, x0, x1
	lsl	x1, x0, 2
	add	x0, x0, x1
	lsl	x1, x0, 2
	add	x0, x0, x1
	lsl	x0, x0, 3
	sub	x1, x2, x0
	cmp	x1, 0
	bne	L84
	ldr	x1, [x29, 904]
	adrp	x0, __ZSt4cerr@GOTPAGE
	ldr	x0, [x0, __ZSt4cerr@GOTPAGEOFF]
	bl	__ZNSolsEy
	adrp	x1, __ZSt4endlIcSt11char_traitsIcEERSt13basic_ostreamIT_T0_ES6_@GOTPAGE
	ldr	x1, [x1, __ZSt4endlIcSt11char_traitsIcEERSt13basic_ostreamIT_T0_ES6_@GOTPAGEOFF]
	bl	__ZNSolsEPFRSoS_E
L84:
	ldr	x0, [x29, 904]
	lsl	x0, x0, 1
	sub	x0, x0, #1
	ldr	x1, [x29, 904]
	mul	x0, x1, x0
	str	x0, [x29, 880]
	ldr	x1, [x29, 904]
	mov	x0, x1
	lsl	x0, x0, 2
	add	x0, x0, x1
	sub	x0, x0, #2
	str	x0, [x29, 872]
	ldr	x1, [x29, 904]
	mov	x0, x1
	lsl	x0, x0, 1
	add	x0, x0, x1
	lsl	x1, x0, 3
	add	x0, x0, x1
	sub	x0, x0, #12
	str	x0, [x29, 864]
	ldr	x1, [x29, 904]
	mov	x0, x1
	lsl	x0, x0, 3
	add	x0, x0, x1
	add	x2, x0, 3
	ldr	x1, [x29, 904]
	mov	x0, x1
	lsl	x0, x0, 1
	add	x0, x0, x1
	add	x0, x0, 2
	mul	x0, x2, x0
	lsr	x0, x0, 1
	str	x0, [x29, 856]
	ldr	x1, [x29, 856]
	mov	x0, x1
	lsl	x0, x0, 2
	add	x0, x0, x1
	lsl	x0, x0, 1
	str	x0, [x29, 848]
	add	x0, x29, 184
	ldr	x1, [x29, 856]
	bl	__Z5muleqRSt6vectorIySaIyEEy
	add	x1, x29, 160
	add	x0, x29, 232
	mov	x2, x1
	ldr	x1, [x29, 872]
	bl	__Z3mulRKSt6vectorIySaIyEEyRS1_
	add	x1, x29, 160
	add	x0, x29, 208
	bl	__Z5sumeqRSt6vectorIySaIyEERKS1_
	add	x0, x29, 208
	ldr	x1, [x29, 848]
	bl	__Z5muleqRSt6vectorIySaIyEEy
	add	x1, x29, 160
	add	x0, x29, 232
	mov	x2, x1
	ldr	x1, [x29, 880]
	bl	__Z3mulRKSt6vectorIySaIyEEyRS1_
	add	x1, x29, 232
	add	x0, x29, 160
	mov	x2, x1
	mov	x1, 5
	bl	__Z3mulRKSt6vectorIySaIyEEyRS1_
	add	x0, x29, 160
	ldr	x1, [x29, 864]
	bl	__Z5muleqRSt6vectorIySaIyEEy
	add	x1, x29, 208
	add	x0, x29, 160
	bl	__Z5sumeqRSt6vectorIySaIyEERKS1_
	add	x1, x29, 136
	add	x0, x29, 184
	mov	x2, x1
	mov	x1, 10
	bl	__Z3mulRKSt6vectorIySaIyEEyRS1_
	str	wzr, [x29, 900]
	b	L85
L86:
	ldr	w0, [x29, 900]
	add	w0, w0, 1
	str	w0, [x29, 900]
	add	x1, x29, 136
	add	x0, x29, 160
	bl	__Z6diffeqRSt6vectorIySaIyEERKS1_
	add	x1, x29, 136
	add	x0, x29, 208
	bl	__Z6diffeqRSt6vectorIySaIyEERKS1_
L85:
	add	x1, x29, 136
	add	x0, x29, 160
	bl	__Z2geRKSt6vectorIySaIyEES3_
	and	w0, w0, 1
	cmp	w0, 0
	bne	L86
	ldr	w0, [x29, 900]
	cmp	w0, 9
	cset	w0, gt
	and	w0, w0, 255
	and	x0, x0, 255
	cmp	x0, 0
	beq	L87
	adrp	x0, lC9@PAGE
	add	x3, x0, lC9@PAGEOFF;
	mov	w2, 200
	adrp	x0, lC2@PAGE
	add	x1, x0, lC2@PAGEOFF;
	adrp	x0, lC6@PAGE
	add	x0, x0, lC6@PAGEOFF;
	bl	___assert_rtn
L87:
	add	x0, x29, 256
	add	x0, x0, 16
	ldr	w1, [x29, 900]
	bl	__ZNSolsEi
	ldr	x0, [x29, 904]
	add	x0, x0, 1
	str	x0, [x29, 904]
L82:
	ldr	x1, [x29, 904]
	ldr	x0, [x29, 888]
	cmp	x1, x0
	bls	L88
	add	x0, x29, 256
	add	x1, x29, 768
	mov	x8, x1
	bl	__ZNKSt7__cxx1118basic_stringstreamIcSt11char_traitsIcESaIcEE3strEv
LEHE9:
	add	x0, x29, 768
	mov	x1, x0
	adrp	x0, __ZSt4cout@GOTPAGE
	ldr	x0, [x0, __ZSt4cout@GOTPAGEOFF]
LEHB10:
	bl	__ZStlsIcSt11char_traitsIcESaIcEERSt13basic_ostreamIT_T0_ES7_RKNSt7__cxx1112basic_stringIS4_S5_T1_EE
	adrp	x1, __ZSt4endlIcSt11char_traitsIcEERSt13basic_ostreamIT_T0_ES6_@GOTPAGE
	ldr	x1, [x1, __ZSt4endlIcSt11char_traitsIcEERSt13basic_ostreamIT_T0_ES6_@GOTPAGEOFF]
	bl	__ZNSolsEPFRSoS_E
LEHE10:
	add	x0, x29, 768
	bl	__ZNSt7__cxx1112basic_stringIcSt11char_traitsIcESaIcEED1Ev
	add	x0, x29, 136
	bl	__ZNSt6vectorIySaIyEED1Ev
	add	x0, x29, 160
	bl	__ZNSt6vectorIySaIyEED1Ev
	add	x0, x29, 184
	bl	__ZNSt6vectorIySaIyEED1Ev
	add	x0, x29, 208
	bl	__ZNSt6vectorIySaIyEED1Ev
	add	x0, x29, 232
	bl	__ZNSt6vectorIySaIyEED1Ev
	add	x0, x29, 256
	bl	__ZNSt7__cxx1118basic_stringstreamIcSt11char_traitsIcESaIcEED1Ev
	mov	w0, 0
	b	L113
L105:
	mov	x19, x0
	add	x0, x29, 648
	bl	__ZNSt7__cxx1112basic_stringIcSt11char_traitsIcESaIcEED1Ev
	b	L91
L104:
	mov	x19, x0
L91:
	add	x0, x29, 680
	bl	__ZNSt15__new_allocatorIcED2Ev
	nop
	mov	x0, x19
LEHB11:
	bl	__Unwind_Resume
L106:
	mov	x19, x0
	add	x0, x29, 696
	bl	__ZNSt15__new_allocatorIyED2Ev
	nop
	b	L93
L107:
	mov	x19, x0
	add	x0, x29, 712
	bl	__ZNSt15__new_allocatorIyED2Ev
	nop
	b	L95
L108:
	mov	x19, x0
	add	x0, x29, 728
	bl	__ZNSt15__new_allocatorIyED2Ev
	nop
	b	L97
L109:
	mov	x19, x0
	add	x0, x29, 744
	bl	__ZNSt15__new_allocatorIyED2Ev
	nop
	b	L99
L110:
	mov	x19, x0
	add	x0, x29, 760
	bl	__ZNSt15__new_allocatorIyED2Ev
	nop
	b	L101
L112:
	mov	x19, x0
	add	x0, x29, 768
	bl	__ZNSt7__cxx1112basic_stringIcSt11char_traitsIcESaIcEED1Ev
	b	L103
L111:
	mov	x19, x0
L103:
	add	x0, x29, 136
	bl	__ZNSt6vectorIySaIyEED1Ev
L101:
	add	x0, x29, 160
	bl	__ZNSt6vectorIySaIyEED1Ev
L99:
	add	x0, x29, 184
	bl	__ZNSt6vectorIySaIyEED1Ev
L97:
	add	x0, x29, 208
	bl	__ZNSt6vectorIySaIyEED1Ev
L95:
	add	x0, x29, 232
	bl	__ZNSt6vectorIySaIyEED1Ev
L93:
	add	x0, x29, 256
	bl	__ZNSt7__cxx1118basic_stringstreamIcSt11char_traitsIcESaIcEED1Ev
	mov	x0, x19
	bl	__Unwind_Resume
LEHE11:
L113:
	ldp	x29, x30, [sp]
	ldp	x19, x20, [sp, 16]
	ldp	x21, x22, [sp, 32]
	ldp	x23, x24, [sp, 48]
	ldp	x25, x26, [sp, 64]
	ldr	x27, [sp, 80]
	add	sp, sp, 912
LCFI59:
	ret
LFE2521:
	.section __TEXT,__gcc_except_tab
	.p2align	2
GCC_except_table0:
LLSDA2521:
	.byte	0xff
	.byte	0xff
	.byte	0x1
	.uleb128 LLSDACSE2521-LLSDACSB2521
LLSDACSB2521:
	.uleb128 LEHB0-LFB2521
	.uleb128 LEHE0-LEHB0
	.uleb128 0
	.uleb128 0
	.uleb128 LEHB1-LFB2521
	.uleb128 LEHE1-LEHB1
	.uleb128 L104-LFB2521
	.uleb128 0
	.uleb128 LEHB2-LFB2521
	.uleb128 LEHE2-LEHB2
	.uleb128 L105-LFB2521
	.uleb128 0
	.uleb128 LEHB3-LFB2521
	.uleb128 LEHE3-LEHB3
	.uleb128 0
	.uleb128 0
	.uleb128 LEHB4-LFB2521
	.uleb128 LEHE4-LEHB4
	.uleb128 L106-LFB2521
	.uleb128 0
	.uleb128 LEHB5-LFB2521
	.uleb128 LEHE5-LEHB5
	.uleb128 L107-LFB2521
	.uleb128 0
	.uleb128 LEHB6-LFB2521
	.uleb128 LEHE6-LEHB6
	.uleb128 L108-LFB2521
	.uleb128 0
	.uleb128 LEHB7-LFB2521
	.uleb128 LEHE7-LEHB7
	.uleb128 L109-LFB2521
	.uleb128 0
	.uleb128 LEHB8-LFB2521
	.uleb128 LEHE8-LEHB8
	.uleb128 L110-LFB2521
	.uleb128 0
	.uleb128 LEHB9-LFB2521
	.uleb128 LEHE9-LEHB9
	.uleb128 L111-LFB2521
	.uleb128 0
	.uleb128 LEHB10-LFB2521
	.uleb128 LEHE10-LEHB10
	.uleb128 L112-LFB2521
	.uleb128 0
	.uleb128 LEHB11-LFB2521
	.uleb128 LEHE11-LEHB11
	.uleb128 0
	.uleb128 0
LLSDACSE2521:
	.text
	.align	2
	.globl __ZN9__gnu_cxx11char_traitsIcE6lengthEPKc
	.weak_definition __ZN9__gnu_cxx11char_traitsIcE6lengthEPKc
__ZN9__gnu_cxx11char_traitsIcE6lengthEPKc:
LFB2522:
	stp	x29, x30, [sp, -48]!
LCFI60:
	mov	x29, sp
LCFI61:
	str	x0, [x29, 24]
	str	xzr, [x29, 40]
	b	L115
L116:
	ldr	x0, [x29, 40]
	add	x0, x0, 1
	str	x0, [x29, 40]
L115:
	ldr	x1, [x29, 24]
	ldr	x0, [x29, 40]
	add	x0, x1, x0
	strb	wzr, [x29, 39]
	add	x1, x29, 39
	bl	__ZN9__gnu_cxx11char_traitsIcE2eqERKcS3_
	eor	w0, w0, 1
	and	w0, w0, 255
	and	w0, w0, 1
	cmp	w0, 0
	bne	L116
	ldr	x0, [x29, 40]
	ldp	x29, x30, [sp], 48
LCFI62:
	ret
LFE2522:
	.align	2
	.globl __ZZN9__gnu_cxx6__stoaIyycJiEEET0_PFT_PKT1_PPS3_DpT2_EPKcS5_PmS9_EN11_Save_errnoC1Ev
	.weak_definition __ZZN9__gnu_cxx6__stoaIyycJiEEET0_PFT_PKT1_PPS3_DpT2_EPKcS5_PmS9_EN11_Save_errnoC1Ev
__ZZN9__gnu_cxx6__stoaIyycJiEEET0_PFT_PKT1_PPS3_DpT2_EPKcS5_PmS9_EN11_Save_errnoC1Ev:
LFB2585:
	stp	x29, x30, [sp, -32]!
LCFI63:
	mov	x29, sp
LCFI64:
	str	x0, [x29, 24]
	bl	___error
	ldr	w1, [x0]
	ldr	x0, [x29, 24]
	str	w1, [x0]
	bl	___error
	str	wzr, [x0]
	nop
	ldp	x29, x30, [sp], 32
LCFI65:
	ret
LFE2585:
	.align	2
	.globl __ZZN9__gnu_cxx6__stoaIyycJiEEET0_PFT_PKT1_PPS3_DpT2_EPKcS5_PmS9_EN11_Save_errnoD1Ev
	.weak_definition __ZZN9__gnu_cxx6__stoaIyycJiEEET0_PFT_PKT1_PPS3_DpT2_EPKcS5_PmS9_EN11_Save_errnoD1Ev
__ZZN9__gnu_cxx6__stoaIyycJiEEET0_PFT_PKT1_PPS3_DpT2_EPKcS5_PmS9_EN11_Save_errnoD1Ev:
LFB2588:
	stp	x29, x30, [sp, -48]!
LCFI66:
	mov	x29, sp
LCFI67:
	str	x19, [sp, 16]
LCFI68:
	str	x0, [x29, 40]
	bl	___error
	ldr	w0, [x0]
	cmp	w0, 0
	cset	w0, eq
	and	w0, w0, 255
	and	w0, w0, 1
	cmp	w0, 0
	beq	L121
	ldr	x0, [x29, 40]
	ldr	w19, [x0]
	bl	___error
	str	w19, [x0]
L121:
	nop
	ldr	x19, [sp, 16]
	ldp	x29, x30, [sp], 48
LCFI69:
	ret
LFE2588:
	.section __TEXT,__gcc_except_tab
	.p2align	2
GCC_except_table1:
LLSDA2588:
	.byte	0xff
	.byte	0xff
	.byte	0x1
	.uleb128 LLSDACSE2588-LLSDACSB2588
LLSDACSB2588:
LLSDACSE2588:
	.text
	.align	2
	.globl __ZZN9__gnu_cxx6__stoaIyycJiEEET0_PFT_PKT1_PPS3_DpT2_EPKcS5_PmS9_EN10_Range_chk6_S_chkEySt17integral_constantIbLb0EE
	.weak_definition __ZZN9__gnu_cxx6__stoaIyycJiEEET0_PFT_PKT1_PPS3_DpT2_EPKcS5_PmS9_EN10_Range_chk6_S_chkEySt17integral_constantIbLb0EE
__ZZN9__gnu_cxx6__stoaIyycJiEEET0_PFT_PKT1_PPS3_DpT2_EPKcS5_PmS9_EN10_Range_chk6_S_chkEySt17integral_constantIbLb0EE:
LFB2589:
	sub	sp, sp, #16
LCFI70:
	str	x0, [sp, 8]
	strb	w1, [sp]
	mov	w0, 0
	add	sp, sp, 16
LCFI71:
	ret
LFE2589:
	.align	2
	.globl __ZN9__gnu_cxx6__stoaIyycJiEEET0_PFT_PKT1_PPS3_DpT2_EPKcS5_PmS9_
	.weak_definition __ZN9__gnu_cxx6__stoaIyycJiEEET0_PFT_PKT1_PPS3_DpT2_EPKcS5_PmS9_
__ZN9__gnu_cxx6__stoaIyycJiEEET0_PFT_PKT1_PPS3_DpT2_EPKcS5_PmS9_:
LFB2582:
	stp	x29, x30, [sp, -128]!
LCFI72:
	mov	x29, sp
LCFI73:
	str	x19, [sp, 16]
LCFI74:
	str	x0, [x29, 72]
	str	x1, [x29, 64]
	str	x2, [x29, 56]
	str	x3, [x29, 48]
	str	w4, [x29, 44]
	add	x0, x29, 88
LEHB12:
	bl	__ZZN9__gnu_cxx6__stoaIyycJiEEET0_PFT_PKT1_PPS3_DpT2_EPKcS5_PmS9_EN11_Save_errnoC1Ev
LEHE12:
	ldr	x3, [x29, 72]
	add	x0, x29, 96
	ldr	w2, [x29, 44]
	mov	x1, x0
	ldr	x0, [x29, 56]
LEHB13:
	blr	x3
	str	x0, [x29, 120]
	ldr	x0, [x29, 96]
	ldr	x1, [x29, 56]
	cmp	x1, x0
	bne	L125
	ldr	x0, [x29, 64]
	bl	__ZSt24__throw_invalid_argumentPKc
L125:
	bl	___error
	ldr	w0, [x0]
	cmp	w0, 34
	beq	L126
	mov	w1, w19
	ldr	x0, [x29, 120]
	bl	__ZZN9__gnu_cxx6__stoaIyycJiEEET0_PFT_PKT1_PPS3_DpT2_EPKcS5_PmS9_EN10_Range_chk6_S_chkEySt17integral_constantIbLb0EE
	and	w0, w0, 1
	cmp	w0, 0
	beq	L127
L126:
	mov	w0, 1
	b	L128
L127:
	mov	w0, 0
L128:
	and	w0, w0, 1
	cmp	w0, 0
	beq	L129
	ldr	x0, [x29, 64]
	bl	__ZSt20__throw_out_of_rangePKc
LEHE13:
L129:
	ldr	x0, [x29, 120]
	str	x0, [x29, 112]
	ldr	x0, [x29, 48]
	cmp	x0, 0
	beq	L130
	ldr	x1, [x29, 96]
	ldr	x0, [x29, 56]
	sub	x0, x1, x0
	mov	x1, x0
	ldr	x0, [x29, 48]
	str	x1, [x0]
L130:
	ldr	x19, [x29, 112]
	add	x0, x29, 88
	bl	__ZZN9__gnu_cxx6__stoaIyycJiEEET0_PFT_PKT1_PPS3_DpT2_EPKcS5_PmS9_EN11_Save_errnoD1Ev
	mov	x0, x19
	b	L134
L133:
	mov	x19, x0
	add	x0, x29, 88
	bl	__ZZN9__gnu_cxx6__stoaIyycJiEEET0_PFT_PKT1_PPS3_DpT2_EPKcS5_PmS9_EN11_Save_errnoD1Ev
	mov	x0, x19
LEHB14:
	bl	__Unwind_Resume
LEHE14:
L134:
	ldr	x19, [sp, 16]
	ldp	x29, x30, [sp], 128
LCFI75:
	ret
LFE2582:
	.section __TEXT,__gcc_except_tab
	.p2align	2
GCC_except_table2:
LLSDA2582:
	.byte	0xff
	.byte	0xff
	.byte	0x1
	.uleb128 LLSDACSE2582-LLSDACSB2582
LLSDACSB2582:
	.uleb128 LEHB12-LFB2582
	.uleb128 LEHE12-LEHB12
	.uleb128 0
	.uleb128 0
	.uleb128 LEHB13-LFB2582
	.uleb128 LEHE13-LEHB13
	.uleb128 L133-LFB2582
	.uleb128 0
	.uleb128 LEHB14-LFB2582
	.uleb128 LEHE14-LEHB14
	.uleb128 0
	.uleb128 0
LLSDACSE2582:
	.text
	.align	2
	.globl __ZNSt7__cxx1112basic_stringIcSt11char_traitsIcESaIcEE12_Alloc_hiderD1Ev
	.weak_definition __ZNSt7__cxx1112basic_stringIcSt11char_traitsIcESaIcEE12_Alloc_hiderD1Ev
__ZNSt7__cxx1112basic_stringIcSt11char_traitsIcESaIcEE12_Alloc_hiderD1Ev:
LFB2621:
	stp	x29, x30, [sp, -48]!
LCFI76:
	mov	x29, sp
LCFI77:
	str	x0, [x29, 24]
	ldr	x0, [x29, 24]
	str	x0, [x29, 40]
	ldr	x0, [x29, 40]
	bl	__ZNSt15__new_allocatorIcED2Ev
	nop
	nop
	ldp	x29, x30, [sp], 48
LCFI78:
	ret
LFE2621:
	.align	2
	.globl __ZNSt4pairIyyEC1IyyLb1EEERKyS3_
	.weak_definition __ZNSt4pairIyyEC1IyyLb1EEERKyS3_
__ZNSt4pairIyyEC1IyyLb1EEERKyS3_:
LFB2797:
	sub	sp, sp, #32
LCFI79:
	str	x0, [sp, 24]
	str	x1, [sp, 16]
	str	x2, [sp, 8]
	ldr	x0, [sp, 16]
	ldr	x1, [x0]
	ldr	x0, [sp, 24]
	str	x1, [x0]
	ldr	x0, [sp, 8]
	ldr	x1, [x0]
	ldr	x0, [sp, 24]
	str	x1, [x0, 8]
	nop
	add	sp, sp, 32
LCFI80:
	ret
LFE2797:
	.align	2
	.globl __ZNKSt6vectorIySaIyEE4sizeEv
	.weak_definition __ZNKSt6vectorIySaIyEE4sizeEv
__ZNKSt6vectorIySaIyEE4sizeEv:
LFB2798:
	sub	sp, sp, #16
LCFI81:
	str	x0, [sp, 8]
	ldr	x0, [sp, 8]
	ldr	x1, [x0, 8]
	ldr	x0, [sp, 8]
	ldr	x0, [x0]
	sub	x0, x1, x0
	asr	x0, x0, 3
	add	sp, sp, 16
LCFI82:
	ret
LFE2798:
	.align	2
	.globl __ZNKSt6vectorIySaIyEEixEm
	.weak_definition __ZNKSt6vectorIySaIyEEixEm
__ZNKSt6vectorIySaIyEEixEm:
LFB2799:
	sub	sp, sp, #16
LCFI83:
	str	x0, [sp, 8]
	str	x1, [sp]
	ldr	x0, [sp, 8]
	ldr	x1, [x0]
	ldr	x0, [sp]
	lsl	x0, x0, 3
	add	x0, x1, x0
	add	sp, sp, 16
LCFI84:
	ret
LFE2799:
	.align	2
	.globl __ZNSt6vectorIySaIyEE5clearEv
	.weak_definition __ZNSt6vectorIySaIyEE5clearEv
__ZNSt6vectorIySaIyEE5clearEv:
LFB2800:
	stp	x29, x30, [sp, -32]!
LCFI85:
	mov	x29, sp
LCFI86:
	str	x0, [x29, 24]
	ldr	x0, [x29, 24]
	ldr	x0, [x0]
	mov	x1, x0
	ldr	x0, [x29, 24]
	bl	__ZNSt6vectorIySaIyEE15_M_erase_at_endEPy
	nop
	ldp	x29, x30, [sp], 32
LCFI87:
	ret
LFE2800:
	.align	2
	.globl __ZNSt6vectorIySaIyEE9push_backEOy
	.weak_definition __ZNSt6vectorIySaIyEE9push_backEOy
__ZNSt6vectorIySaIyEE9push_backEOy:
LFB2801:
	stp	x29, x30, [sp, -32]!
LCFI88:
	mov	x29, sp
LCFI89:
	str	x0, [x29, 24]
	str	x1, [x29, 16]
	ldr	x0, [x29, 16]
	bl	__ZSt4moveIRyEONSt16remove_referenceIT_E4typeEOS2_
	mov	x1, x0
	ldr	x0, [x29, 24]
	bl	__ZNSt6vectorIySaIyEE12emplace_backIJyEEERyDpOT_
	nop
	ldp	x29, x30, [sp], 32
LCFI90:
	ret
LFE2801:
	.align	2
	.globl __ZNSt6vectorIySaIyEEixEm
	.weak_definition __ZNSt6vectorIySaIyEEixEm
__ZNSt6vectorIySaIyEEixEm:
LFB2802:
	sub	sp, sp, #16
LCFI91:
	str	x0, [sp, 8]
	str	x1, [sp]
	ldr	x0, [sp, 8]
	ldr	x1, [x0]
	ldr	x0, [sp]
	lsl	x0, x0, 3
	add	x0, x1, x0
	add	sp, sp, 16
LCFI92:
	ret
LFE2802:
	.align	2
	.globl __ZNSt6vectorIySaIyEE9push_backERKy
	.weak_definition __ZNSt6vectorIySaIyEE9push_backERKy
__ZNSt6vectorIySaIyEE9push_backERKy:
LFB2803:
	stp	x29, x30, [sp, -96]!
LCFI93:
	mov	x29, sp
LCFI94:
	str	x19, [sp, 16]
LCFI95:
	str	x0, [x29, 40]
	str	x1, [x29, 32]
	ldr	x0, [x29, 40]
	ldr	x1, [x0, 8]
	ldr	x0, [x29, 40]
	ldr	x0, [x0, 16]
	cmp	x1, x0
	beq	L146
	ldr	x1, [x29, 40]
	ldr	x0, [x29, 40]
	ldr	x0, [x0, 8]
	str	x1, [x29, 88]
	str	x0, [x29, 80]
	ldr	x0, [x29, 32]
	str	x0, [x29, 72]
	ldr	x0, [x29, 72]
	bl	__ZSt7forwardIRKyEOT_RNSt16remove_referenceIS2_E4typeE
	mov	x1, x0
	ldr	x0, [x29, 80]
	str	x0, [x29, 64]
	str	x1, [x29, 56]
	ldr	x0, [x29, 88]
	str	x0, [x29, 48]
	ldr	x0, [x29, 64]
	mov	x1, x0
	mov	x0, 8
	bl	__ZnwmPv
	mov	x19, x0
	ldr	x0, [x29, 56]
	bl	__ZSt7forwardIRKyEOT_RNSt16remove_referenceIS2_E4typeE
	ldr	x0, [x0]
	str	x0, [x19]
	nop
	nop
	ldr	x0, [x29, 40]
	ldr	x0, [x0, 8]
	add	x1, x0, 8
	ldr	x0, [x29, 40]
	str	x1, [x0, 8]
	b	L148
L146:
	ldr	x1, [x29, 32]
	ldr	x0, [x29, 40]
	bl	__ZNSt6vectorIySaIyEE17_M_realloc_appendIJRKyEEEvDpOT_
L148:
	nop
	ldr	x19, [sp, 16]
	ldp	x29, x30, [sp], 96
LCFI96:
	ret
LFE2803:
	.align	2
	.globl __ZNSt6vectorIySaIyEE4backEv
	.weak_definition __ZNSt6vectorIySaIyEE4backEv
__ZNSt6vectorIySaIyEE4backEv:
LFB2804:
	stp	x29, x30, [sp, -48]!
LCFI97:
	mov	x29, sp
LCFI98:
	str	x0, [x29, 24]
	ldr	x0, [x29, 24]
	bl	__ZNSt6vectorIySaIyEE3endEv
	str	x0, [x29, 40]
	add	x0, x29, 40
	mov	x1, 1
	bl	__ZNK9__gnu_cxx17__normal_iteratorIPySt6vectorIySaIyEEEmiEl
	str	x0, [x29, 32]
	add	x0, x29, 32
	bl	__ZNK9__gnu_cxx17__normal_iteratorIPySt6vectorIySaIyEEEdeEv
	ldp	x29, x30, [sp], 48
LCFI99:
	ret
LFE2804:
	.align	2
	.globl __ZNSt6vectorIySaIyEE8pop_backEv
	.weak_definition __ZNSt6vectorIySaIyEE8pop_backEv
__ZNSt6vectorIySaIyEE8pop_backEv:
LFB2805:
	sub	sp, sp, #48
LCFI100:
	str	x0, [sp, 8]
	ldr	x0, [sp, 8]
	ldr	x0, [x0, 8]
	sub	x1, x0, #8
	ldr	x0, [sp, 8]
	str	x1, [x0, 8]
	ldr	x1, [sp, 8]
	ldr	x0, [sp, 8]
	ldr	x0, [x0, 8]
	str	x1, [sp, 40]
	str	x0, [sp, 32]
	ldr	x0, [sp, 32]
	str	x0, [sp, 24]
	ldr	x0, [sp, 40]
	str	x0, [sp, 16]
	nop
	nop
	nop
	add	sp, sp, 48
LCFI101:
	ret
LFE2805:
	.align	2
	.globl __ZNSt6vectorIySaIyEE5beginEv
	.weak_definition __ZNSt6vectorIySaIyEE5beginEv
__ZNSt6vectorIySaIyEE5beginEv:
LFB2806:
	stp	x29, x30, [sp, -48]!
LCFI102:
	mov	x29, sp
LCFI103:
	str	x0, [x29, 24]
	ldr	x1, [x29, 24]
	add	x0, x29, 40
	bl	__ZN9__gnu_cxx17__normal_iteratorIPySt6vectorIySaIyEEEC1ERKS1_
	ldr	x0, [x29, 40]
	ldp	x29, x30, [sp], 48
LCFI104:
	ret
LFE2806:
	.align	2
	.globl __ZN9__gnu_cxx17__normal_iteratorIPKySt6vectorIySaIyEEEC1IPyvEERKNS0_IT_S5_EE
	.weak_definition __ZN9__gnu_cxx17__normal_iteratorIPKySt6vectorIySaIyEEEC1IPyvEERKNS0_IT_S5_EE
__ZN9__gnu_cxx17__normal_iteratorIPKySt6vectorIySaIyEEEC1IPyvEERKNS0_IT_S5_EE:
LFB2809:
	stp	x29, x30, [sp, -32]!
LCFI105:
	mov	x29, sp
LCFI106:
	str	x0, [x29, 24]
	str	x1, [x29, 16]
	ldr	x0, [x29, 16]
	bl	__ZNK9__gnu_cxx17__normal_iteratorIPySt6vectorIySaIyEEE4baseEv
	ldr	x1, [x0]
	ldr	x0, [x29, 24]
	str	x1, [x0]
	nop
	ldp	x29, x30, [sp], 32
LCFI107:
	ret
LFE2809:
	.align	2
	.globl __ZNSt6vectorIySaIyEE5eraseEN9__gnu_cxx17__normal_iteratorIPKyS1_EE
	.weak_definition __ZNSt6vectorIySaIyEE5eraseEN9__gnu_cxx17__normal_iteratorIPKyS1_EE
__ZNSt6vectorIySaIyEE5eraseEN9__gnu_cxx17__normal_iteratorIPKyS1_EE:
LFB2810:
	stp	x29, x30, [sp, -48]!
LCFI108:
	mov	x29, sp
LCFI109:
	str	x0, [x29, 24]
	str	x1, [x29, 16]
	ldr	x0, [x29, 24]
	bl	__ZNSt6vectorIySaIyEE5beginEv
	str	x0, [x29, 32]
	ldr	x0, [x29, 24]
	bl	__ZNKSt6vectorIySaIyEE6cbeginEv
	str	x0, [x29, 40]
	add	x1, x29, 40
	add	x0, x29, 16
	bl	__ZN9__gnu_cxxmiIPKySt6vectorIySaIyEEEENS_17__normal_iteratorIT_T0_E15difference_typeERKS9_SC_
	mov	x1, x0
	add	x0, x29, 32
	bl	__ZNK9__gnu_cxx17__normal_iteratorIPySt6vectorIySaIyEEEplEl
	mov	x1, x0
	ldr	x0, [x29, 24]
	bl	__ZNSt6vectorIySaIyEE8_M_eraseEN9__gnu_cxx17__normal_iteratorIPyS1_EE
	ldp	x29, x30, [sp], 48
LCFI110:
	ret
LFE2810:
	.cstring
	.align	3
lC10:
	.ascii "basic_string: construction from null is not valid\0"
	.text
	.align	2
	.globl __ZNSt7__cxx1112basic_stringIcSt11char_traitsIcESaIcEEC1IS3_EEPKcRKS3_
	.weak_definition __ZNSt7__cxx1112basic_stringIcSt11char_traitsIcESaIcEEC1IS3_EEPKcRKS3_
__ZNSt7__cxx1112basic_stringIcSt11char_traitsIcESaIcEEC1IS3_EEPKcRKS3_:
LFB2813:
	stp	x29, x30, [sp, -80]!
LCFI111:
	mov	x29, sp
LCFI112:
	stp	x19, x20, [sp, 16]
LCFI113:
	str	x0, [x29, 56]
	str	x1, [x29, 48]
	str	x2, [x29, 40]
	ldr	x19, [x29, 56]
	ldr	x0, [x29, 56]
	bl	__ZNSt7__cxx1112basic_stringIcSt11char_traitsIcESaIcEE13_M_local_dataEv
	ldr	x2, [x29, 40]
	mov	x1, x0
	mov	x0, x19
	bl	__ZNSt7__cxx1112basic_stringIcSt11char_traitsIcESaIcEE12_Alloc_hiderC1EPcRKS3_
	ldr	x0, [x29, 48]
	cmp	x0, 0
	bne	L158
	adrp	x0, lC10@PAGE
	add	x0, x0, lC10@PAGEOFF;
LEHB15:
	bl	__ZSt19__throw_logic_errorPKc
L158:
	ldr	x0, [x29, 48]
	bl	__ZNSt11char_traitsIcE6lengthEPKc
	mov	x1, x0
	ldr	x0, [x29, 48]
	add	x0, x0, x1
	str	x0, [x29, 72]
	mov	w3, w20
	ldr	x2, [x29, 72]
	ldr	x1, [x29, 48]
	ldr	x0, [x29, 56]
	bl	__ZNSt7__cxx1112basic_stringIcSt11char_traitsIcESaIcEE12_M_constructIPKcEEvT_S8_St20forward_iterator_tag
LEHE15:
	b	L161
L160:
	mov	x19, x0
	ldr	x0, [x29, 56]
	bl	__ZNSt7__cxx1112basic_stringIcSt11char_traitsIcESaIcEE12_Alloc_hiderD1Ev
	mov	x0, x19
LEHB16:
	bl	__Unwind_Resume
LEHE16:
L161:
	ldp	x19, x20, [sp, 16]
	ldp	x29, x30, [sp], 80
LCFI114:
	ret
LFE2813:
	.section __TEXT,__gcc_except_tab
	.p2align	2
GCC_except_table3:
LLSDA2813:
	.byte	0xff
	.byte	0xff
	.byte	0x1
	.uleb128 LLSDACSE2813-LLSDACSB2813
LLSDACSB2813:
	.uleb128 LEHB15-LFB2813
	.uleb128 LEHE15-LEHB15
	.uleb128 L160-LFB2813
	.uleb128 0
	.uleb128 LEHB16-LFB2813
	.uleb128 LEHE16-LEHB16
	.uleb128 0
	.uleb128 0
LLSDACSE2813:
	.text
	.align	2
	.globl __ZNSt6vectorIySaIyEEC1ESt16initializer_listIyERKS0_
	.weak_definition __ZNSt6vectorIySaIyEEC1ESt16initializer_listIyERKS0_
__ZNSt6vectorIySaIyEEC1ESt16initializer_listIyERKS0_:
LFB2833:
	stp	x29, x30, [sp, -80]!
LCFI115:
	mov	x29, sp
LCFI116:
	stp	x19, x20, [sp, 16]
LCFI117:
	str	x0, [x29, 56]
	stp	x1, x2, [x29, 40]
	str	x3, [x29, 32]
	ldr	x0, [x29, 56]
	ldr	x1, [x29, 32]
	bl	__ZNSt12_Vector_baseIySaIyEEC2ERKS0_
	add	x0, x29, 40
	bl	__ZNKSt16initializer_listIyE5beginEv
	mov	x19, x0
	add	x0, x29, 40
	bl	__ZNKSt16initializer_listIyE3endEv
	mov	w3, w20
	mov	x2, x0
	mov	x1, x19
	ldr	x0, [x29, 56]
LEHB17:
	bl	__ZNSt6vectorIySaIyEE19_M_range_initializeIPKyEEvT_S5_St20forward_iterator_tag
LEHE17:
	b	L165
L164:
	mov	x19, x0
	ldr	x0, [x29, 56]
	bl	__ZNSt12_Vector_baseIySaIyEED2Ev
	mov	x0, x19
LEHB18:
	bl	__Unwind_Resume
LEHE18:
L165:
	ldp	x19, x20, [sp, 16]
	ldp	x29, x30, [sp], 80
LCFI118:
	ret
LFE2833:
	.section __TEXT,__gcc_except_tab
	.p2align	2
GCC_except_table4:
LLSDA2833:
	.byte	0xff
	.byte	0xff
	.byte	0x1
	.uleb128 LLSDACSE2833-LLSDACSB2833
LLSDACSB2833:
	.uleb128 LEHB17-LFB2833
	.uleb128 LEHE17-LEHB17
	.uleb128 L164-LFB2833
	.uleb128 0
	.uleb128 LEHB18-LFB2833
	.uleb128 LEHE18-LEHB18
	.uleb128 0
	.uleb128 0
LLSDACSE2833:
	.text
	.align	2
	.globl __ZNSt6vectorIySaIyEED1Ev
	.weak_definition __ZNSt6vectorIySaIyEED1Ev
__ZNSt6vectorIySaIyEED1Ev:
LFB2836:
	stp	x29, x30, [sp, -80]!
LCFI119:
	mov	x29, sp
LCFI120:
	stp	x19, x20, [sp, 16]
LCFI121:
	str	x0, [x29, 40]
	ldr	x0, [x29, 40]
	ldr	x20, [x0]
	ldr	x0, [x29, 40]
	ldr	x19, [x0, 8]
	ldr	x0, [x29, 40]
	bl	__ZNSt12_Vector_baseIySaIyEE19_M_get_Tp_allocatorEv
	str	x20, [x29, 72]
	str	x19, [x29, 64]
	str	x0, [x29, 56]
	ldr	x1, [x29, 64]
	ldr	x0, [x29, 72]
	bl	__ZSt8_DestroyIPyEvT_S1_
	nop
	ldr	x0, [x29, 40]
	bl	__ZNSt12_Vector_baseIySaIyEED2Ev
	nop
	ldp	x19, x20, [sp, 16]
	ldp	x29, x30, [sp], 80
LCFI122:
	ret
LFE2836:
	.section __TEXT,__gcc_except_tab
	.p2align	2
GCC_except_table5:
LLSDA2836:
	.byte	0xff
	.byte	0xff
	.byte	0x1
	.uleb128 LLSDACSE2836-LLSDACSB2836
LLSDACSB2836:
LLSDACSE2836:
	.text
	.align	2
	.globl __ZN9__gnu_cxx11char_traitsIcE2eqERKcS3_
	.weak_definition __ZN9__gnu_cxx11char_traitsIcE2eqERKcS3_
__ZN9__gnu_cxx11char_traitsIcE2eqERKcS3_:
LFB2842:
	sub	sp, sp, #16
LCFI123:
	str	x0, [sp, 8]
	str	x1, [sp]
	ldr	x0, [sp, 8]
	ldrsb	w1, [x0]
	ldr	x0, [sp]
	ldrsb	w0, [x0]
	cmp	w1, w0
	cset	w0, eq
	and	w0, w0, 255
	add	sp, sp, 16
LCFI124:
	ret
LFE2842:
	.align	2
	.globl __ZNSt15__new_allocatorIcED2Ev
	.weak_definition __ZNSt15__new_allocatorIcED2Ev
__ZNSt15__new_allocatorIcED2Ev:
LFB2896:
	sub	sp, sp, #16
LCFI125:
	str	x0, [sp, 8]
	nop
	add	sp, sp, 16
LCFI126:
	ret
LFE2896:
	.align	2
	.globl __ZZNSt7__cxx1112basic_stringIcSt11char_traitsIcESaIcEE12_M_constructIPKcEEvT_S8_St20forward_iterator_tagEN6_GuardC1EPS4_
	.weak_definition __ZZNSt7__cxx1112basic_stringIcSt11char_traitsIcESaIcEE12_M_constructIPKcEEvT_S8_St20forward_iterator_tagEN6_GuardC1EPS4_
__ZZNSt7__cxx1112basic_stringIcSt11char_traitsIcESaIcEE12_M_constructIPKcEEvT_S8_St20forward_iterator_tagEN6_GuardC1EPS4_:
LFB2904:
	sub	sp, sp, #16
LCFI127:
	str	x0, [sp, 8]
	str	x1, [sp]
	ldr	x0, [sp, 8]
	ldr	x1, [sp]
	str	x1, [x0]
	nop
	add	sp, sp, 16
LCFI128:
	ret
LFE2904:
	.align	2
	.globl __ZZNSt7__cxx1112basic_stringIcSt11char_traitsIcESaIcEE12_M_constructIPKcEEvT_S8_St20forward_iterator_tagEN6_GuardD1Ev
	.weak_definition __ZZNSt7__cxx1112basic_stringIcSt11char_traitsIcESaIcEE12_M_constructIPKcEEvT_S8_St20forward_iterator_tagEN6_GuardD1Ev
__ZZNSt7__cxx1112basic_stringIcSt11char_traitsIcESaIcEE12_M_constructIPKcEEvT_S8_St20forward_iterator_tagEN6_GuardD1Ev:
LFB2907:
	stp	x29, x30, [sp, -32]!
LCFI129:
	mov	x29, sp
LCFI130:
	str	x0, [x29, 24]
	ldr	x0, [x29, 24]
	ldr	x0, [x0]
	cmp	x0, 0
	beq	L173
	ldr	x0, [x29, 24]
	ldr	x0, [x0]
	bl	__ZNSt7__cxx1112basic_stringIcSt11char_traitsIcESaIcEE10_M_disposeEv
L173:
	nop
	ldp	x29, x30, [sp], 32
LCFI131:
	ret
LFE2907:
	.section __TEXT,__gcc_except_tab
	.p2align	2
GCC_except_table6:
LLSDA2907:
	.byte	0xff
	.byte	0xff
	.byte	0x1
	.uleb128 LLSDACSE2907-LLSDACSB2907
LLSDACSB2907:
LLSDACSE2907:
	.text
	.align	2
	.globl __ZNSt7__cxx1112basic_stringIcSt11char_traitsIcESaIcEE12_M_constructIPKcEEvT_S8_St20forward_iterator_tag
	.weak_definition __ZNSt7__cxx1112basic_stringIcSt11char_traitsIcESaIcEE12_M_constructIPKcEEvT_S8_St20forward_iterator_tag
__ZNSt7__cxx1112basic_stringIcSt11char_traitsIcESaIcEE12_M_constructIPKcEEvT_S8_St20forward_iterator_tag:
LFB2901:
	stp	x29, x30, [sp, -128]!
LCFI132:
	mov	x29, sp
LCFI133:
	str	x19, [sp, 16]
LCFI134:
	str	x0, [x29, 56]
	str	x1, [x29, 48]
	str	x2, [x29, 40]
	strb	w3, [x29, 32]
	ldr	x0, [x29, 48]
	str	x0, [x29, 72]
	ldr	x0, [x29, 40]
	str	x0, [x29, 120]
	ldr	x0, [x29, 72]
	nop
	str	x0, [x29, 112]
	ldr	x0, [x29, 120]
	str	x0, [x29, 104]
	ldr	x1, [x29, 104]
	ldr	x0, [x29, 112]
	sub	x0, x1, x0
	nop
	str	x0, [x29, 88]
	ldr	x0, [x29, 88]
	cmp	x0, 15
	bls	L178
	add	x0, x29, 88
	mov	x2, 0
	mov	x1, x0
	ldr	x0, [x29, 56]
LEHB19:
	bl	__ZNSt7__cxx1112basic_stringIcSt11char_traitsIcESaIcEE9_M_createERmm
LEHE19:
	mov	x1, x0
	ldr	x0, [x29, 56]
	bl	__ZNSt7__cxx1112basic_stringIcSt11char_traitsIcESaIcEE7_M_dataEPc
	ldr	x0, [x29, 88]
	mov	x1, x0
	ldr	x0, [x29, 56]
	bl	__ZNSt7__cxx1112basic_stringIcSt11char_traitsIcESaIcEE11_M_capacityEm
	b	L179
L178:
	ldr	x0, [x29, 56]
	str	x0, [x29, 96]
	nop
L179:
	add	x0, x29, 80
	ldr	x1, [x29, 56]
	bl	__ZZNSt7__cxx1112basic_stringIcSt11char_traitsIcESaIcEE12_M_constructIPKcEEvT_S8_St20forward_iterator_tagEN6_GuardC1EPS4_
	ldr	x0, [x29, 56]
	bl	__ZNKSt7__cxx1112basic_stringIcSt11char_traitsIcESaIcEE7_M_dataEv
	ldr	x2, [x29, 40]
	ldr	x1, [x29, 48]
	bl	__ZNSt7__cxx1112basic_stringIcSt11char_traitsIcESaIcEE13_S_copy_charsEPcPKcS7_
	str	xzr, [x29, 80]
	ldr	x0, [x29, 88]
	mov	x1, x0
	ldr	x0, [x29, 56]
LEHB20:
	bl	__ZNSt7__cxx1112basic_stringIcSt11char_traitsIcESaIcEE13_M_set_lengthEm
LEHE20:
	add	x0, x29, 80
	bl	__ZZNSt7__cxx1112basic_stringIcSt11char_traitsIcESaIcEE12_M_constructIPKcEEvT_S8_St20forward_iterator_tagEN6_GuardD1Ev
	b	L182
L181:
	mov	x19, x0
	add	x0, x29, 80
	bl	__ZZNSt7__cxx1112basic_stringIcSt11char_traitsIcESaIcEE12_M_constructIPKcEEvT_S8_St20forward_iterator_tagEN6_GuardD1Ev
	mov	x0, x19
LEHB21:
	bl	__Unwind_Resume
LEHE21:
L182:
	ldr	x19, [sp, 16]
	ldp	x29, x30, [sp], 128
LCFI135:
	ret
LFE2901:
	.section __TEXT,__gcc_except_tab
	.p2align	2
GCC_except_table7:
LLSDA2901:
	.byte	0xff
	.byte	0xff
	.byte	0x1
	.uleb128 LLSDACSE2901-LLSDACSB2901
LLSDACSB2901:
	.uleb128 LEHB19-LFB2901
	.uleb128 LEHE19-LEHB19
	.uleb128 0
	.uleb128 0
	.uleb128 LEHB20-LFB2901
	.uleb128 LEHE20-LEHB20
	.uleb128 L181-LFB2901
	.uleb128 0
	.uleb128 LEHB21-LFB2901
	.uleb128 LEHE21-LEHB21
	.uleb128 0
	.uleb128 0
LLSDACSE2901:
	.text
	.align	2
	.globl __ZNSt6vectorIySaIyEE15_M_erase_at_endEPy
	.weak_definition __ZNSt6vectorIySaIyEE15_M_erase_at_endEPy
__ZNSt6vectorIySaIyEE15_M_erase_at_endEPy:
LFB2954:
	stp	x29, x30, [sp, -80]!
LCFI136:
	mov	x29, sp
LCFI137:
	str	x19, [sp, 16]
LCFI138:
	str	x0, [x29, 40]
	str	x1, [x29, 32]
	ldr	x0, [x29, 40]
	ldr	x1, [x0, 8]
	ldr	x0, [x29, 32]
	sub	x0, x1, x0
	asr	x0, x0, 3
	str	x0, [x29, 72]
	ldr	x0, [x29, 72]
	cmp	x0, 0
	beq	L185
	ldr	x0, [x29, 40]
	ldr	x19, [x0, 8]
	ldr	x0, [x29, 40]
	bl	__ZNSt12_Vector_baseIySaIyEE19_M_get_Tp_allocatorEv
	mov	x1, x0
	ldr	x0, [x29, 32]
	str	x0, [x29, 64]
	str	x19, [x29, 56]
	str	x1, [x29, 48]
	ldr	x1, [x29, 56]
	ldr	x0, [x29, 64]
	bl	__ZSt8_DestroyIPyEvT_S1_
	nop
	ldr	x0, [x29, 40]
	ldr	x1, [x29, 32]
	str	x1, [x0, 8]
L185:
	nop
	ldr	x19, [sp, 16]
	ldp	x29, x30, [sp], 80
LCFI139:
	ret
LFE2954:
	.section __TEXT,__gcc_except_tab
	.p2align	2
GCC_except_table8:
LLSDA2954:
	.byte	0xff
	.byte	0xff
	.byte	0x1
	.uleb128 LLSDACSE2954-LLSDACSB2954
LLSDACSB2954:
LLSDACSE2954:
	.text
	.align	2
	.globl __ZSt4moveIRyEONSt16remove_referenceIT_E4typeEOS2_
	.weak_definition __ZSt4moveIRyEONSt16remove_referenceIT_E4typeEOS2_
__ZSt4moveIRyEONSt16remove_referenceIT_E4typeEOS2_:
LFB2955:
	sub	sp, sp, #16
LCFI140:
	str	x0, [sp, 8]
	ldr	x0, [sp, 8]
	add	sp, sp, 16
LCFI141:
	ret
LFE2955:
	.align	2
	.globl __ZNSt6vectorIySaIyEE12emplace_backIJyEEERyDpOT_
	.weak_definition __ZNSt6vectorIySaIyEE12emplace_backIJyEEERyDpOT_
__ZNSt6vectorIySaIyEE12emplace_backIJyEEERyDpOT_:
LFB2956:
	stp	x29, x30, [sp, -96]!
LCFI142:
	mov	x29, sp
LCFI143:
	stp	x19, x20, [sp, 16]
LCFI144:
	str	x0, [x29, 40]
	str	x1, [x29, 32]
	ldr	x0, [x29, 40]
	ldr	x1, [x0, 8]
	ldr	x0, [x29, 40]
	ldr	x0, [x0, 16]
	cmp	x1, x0
	beq	L189
	ldr	x20, [x29, 40]
	ldr	x0, [x29, 40]
	ldr	x19, [x0, 8]
	ldr	x0, [x29, 32]
	bl	__ZSt7forwardIyEOT_RNSt16remove_referenceIS0_E4typeE
	str	x20, [x29, 88]
	str	x19, [x29, 80]
	str	x0, [x29, 72]
	ldr	x0, [x29, 72]
	bl	__ZSt7forwardIyEOT_RNSt16remove_referenceIS0_E4typeE
	mov	x1, x0
	ldr	x0, [x29, 80]
	str	x0, [x29, 64]
	str	x1, [x29, 56]
	ldr	x0, [x29, 88]
	str	x0, [x29, 48]
	ldr	x0, [x29, 64]
	mov	x1, x0
	mov	x0, 8
	bl	__ZnwmPv
	mov	x19, x0
	ldr	x0, [x29, 56]
	bl	__ZSt7forwardIyEOT_RNSt16remove_referenceIS0_E4typeE
	ldr	x0, [x0]
	str	x0, [x19]
	nop
	nop
	ldr	x0, [x29, 40]
	ldr	x0, [x0, 8]
	add	x1, x0, 8
	ldr	x0, [x29, 40]
	str	x1, [x0, 8]
	b	L190
L189:
	ldr	x0, [x29, 32]
	bl	__ZSt7forwardIyEOT_RNSt16remove_referenceIS0_E4typeE
	mov	x1, x0
	ldr	x0, [x29, 40]
	bl	__ZNSt6vectorIySaIyEE17_M_realloc_appendIJyEEEvDpOT_
L190:
	ldr	x0, [x29, 40]
	bl	__ZNSt6vectorIySaIyEE4backEv
	ldp	x19, x20, [sp, 16]
	ldp	x29, x30, [sp], 96
LCFI145:
	ret
LFE2956:
	.align	2
	.globl __ZZNSt6vectorIySaIyEE17_M_realloc_appendIJRKyEEEvDpOT_EN6_GuardC1EPymRS0_
	.weak_definition __ZZNSt6vectorIySaIyEE17_M_realloc_appendIJRKyEEEvDpOT_EN6_GuardC1EPymRS0_
__ZZNSt6vectorIySaIyEE17_M_realloc_appendIJRKyEEEvDpOT_EN6_GuardC1EPymRS0_:
LFB2961:
	sub	sp, sp, #32
LCFI146:
	str	x0, [sp, 24]
	str	x1, [sp, 16]
	str	x2, [sp, 8]
	str	x3, [sp]
	ldr	x0, [sp, 24]
	ldr	x1, [sp, 16]
	str	x1, [x0]
	ldr	x0, [sp, 24]
	ldr	x1, [sp, 8]
	str	x1, [x0, 8]
	ldr	x0, [sp, 24]
	ldr	x1, [sp]
	str	x1, [x0, 16]
	nop
	add	sp, sp, 32
LCFI147:
	ret
LFE2961:
	.align	2
	.globl __ZZNSt6vectorIySaIyEE17_M_realloc_appendIJRKyEEEvDpOT_EN6_GuardD1Ev
	.weak_definition __ZZNSt6vectorIySaIyEE17_M_realloc_appendIJRKyEEEvDpOT_EN6_GuardD1Ev
__ZZNSt6vectorIySaIyEE17_M_realloc_appendIJRKyEEEvDpOT_EN6_GuardD1Ev:
LFB2964:
	stp	x29, x30, [sp, -64]!
LCFI148:
	mov	x29, sp
LCFI149:
	str	x0, [x29, 24]
	ldr	x0, [x29, 24]
	ldr	x0, [x0]
	cmp	x0, 0
	beq	L195
	ldr	x0, [x29, 24]
	ldr	x2, [x0, 16]
	ldr	x0, [x29, 24]
	ldr	x1, [x0]
	ldr	x0, [x29, 24]
	ldr	x0, [x0, 8]
	str	x2, [x29, 56]
	str	x1, [x29, 48]
	str	x0, [x29, 40]
	ldr	x2, [x29, 40]
	ldr	x1, [x29, 48]
	ldr	x0, [x29, 56]
	bl	__ZNSt15__new_allocatorIyE10deallocateEPym
	nop
L195:
	nop
	ldp	x29, x30, [sp], 64
LCFI150:
	ret
LFE2964:
	.cstring
	.align	3
lC11:
	.ascii "vector::_M_realloc_append\0"
	.text
	.align	2
	.globl __ZNSt6vectorIySaIyEE17_M_realloc_appendIJRKyEEEvDpOT_
	.weak_definition __ZNSt6vectorIySaIyEE17_M_realloc_appendIJRKyEEEvDpOT_
__ZNSt6vectorIySaIyEE17_M_realloc_appendIJRKyEEEvDpOT_:
LFB2958:
	stp	x29, x30, [sp, -192]!
LCFI151:
	mov	x29, sp
LCFI152:
	stp	x19, x20, [sp, 16]
LCFI153:
	str	x0, [x29, 40]
	str	x1, [x29, 32]
	adrp	x0, lC11@PAGE
	add	x2, x0, lC11@PAGEOFF;
	mov	x1, 1
	ldr	x0, [x29, 40]
	bl	__ZNKSt6vectorIySaIyEE12_M_check_lenEmPKc
	str	x0, [x29, 184]
	ldr	x0, [x29, 184]
	cmp	x0, 0
	bne	L197
	brk #1000
L197:
	ldr	x0, [x29, 40]
	ldr	x0, [x0]
	str	x0, [x29, 176]
	ldr	x0, [x29, 40]
	ldr	x0, [x0, 8]
	str	x0, [x29, 168]
	ldr	x0, [x29, 40]
	bl	__ZNSt6vectorIySaIyEE3endEv
	str	x0, [x29, 80]
	ldr	x0, [x29, 40]
	bl	__ZNSt6vectorIySaIyEE5beginEv
	str	x0, [x29, 88]
	add	x1, x29, 88
	add	x0, x29, 80
	bl	__ZN9__gnu_cxxmiIPySt6vectorIySaIyEEEENS_17__normal_iteratorIT_T0_E15difference_typeERKS8_SB_
	str	x0, [x29, 160]
	ldr	x0, [x29, 40]
	ldr	x1, [x29, 184]
	bl	__ZNSt12_Vector_baseIySaIyEE11_M_allocateEm
	str	x0, [x29, 152]
	ldr	x0, [x29, 152]
	str	x0, [x29, 144]
	ldr	x1, [x29, 40]
	add	x0, x29, 56
	mov	x3, x1
	ldr	x2, [x29, 184]
	ldr	x1, [x29, 152]
	bl	__ZZNSt6vectorIySaIyEE17_M_realloc_appendIJRKyEEEvDpOT_EN6_GuardC1EPymRS0_
	ldr	x19, [x29, 40]
	ldr	x0, [x29, 160]
	lsl	x0, x0, 3
	ldr	x1, [x29, 152]
	add	x0, x1, x0
	bl	__ZSt12__to_addressIyEPT_S1_
	mov	x20, x0
	ldr	x0, [x29, 32]
	bl	__ZSt7forwardIRKyEOT_RNSt16remove_referenceIS2_E4typeE
	str	x19, [x29, 136]
	str	x20, [x29, 128]
	str	x0, [x29, 120]
	ldr	x0, [x29, 120]
	bl	__ZSt7forwardIRKyEOT_RNSt16remove_referenceIS2_E4typeE
	mov	x1, x0
	ldr	x0, [x29, 128]
	str	x0, [x29, 112]
	str	x1, [x29, 104]
	ldr	x0, [x29, 136]
	str	x0, [x29, 96]
	ldr	x0, [x29, 112]
	mov	x1, x0
	mov	x0, 8
	bl	__ZnwmPv
	mov	x19, x0
	ldr	x0, [x29, 104]
	bl	__ZSt7forwardIRKyEOT_RNSt16remove_referenceIS2_E4typeE
	ldr	x0, [x0]
	str	x0, [x19]
	nop
	nop
	ldr	x0, [x29, 40]
	bl	__ZNSt12_Vector_baseIySaIyEE19_M_get_Tp_allocatorEv
	mov	x3, x0
	ldr	x2, [x29, 152]
	ldr	x1, [x29, 168]
	ldr	x0, [x29, 176]
	bl	__ZNSt6vectorIySaIyEE11_S_relocateEPyS2_S2_RS0_
	str	x0, [x29, 144]
	ldr	x0, [x29, 144]
	add	x0, x0, 8
	str	x0, [x29, 144]
	ldr	x0, [x29, 176]
	str	x0, [x29, 56]
	ldr	x0, [x29, 40]
	ldr	x1, [x0, 16]
	ldr	x0, [x29, 176]
	sub	x0, x1, x0
	asr	x0, x0, 3
	str	x0, [x29, 64]
	add	x0, x29, 56
	bl	__ZZNSt6vectorIySaIyEE17_M_realloc_appendIJRKyEEEvDpOT_EN6_GuardD1Ev
	ldr	x0, [x29, 40]
	ldr	x1, [x29, 152]
	str	x1, [x0]
	ldr	x0, [x29, 40]
	ldr	x1, [x29, 144]
	str	x1, [x0, 8]
	ldr	x0, [x29, 184]
	lsl	x0, x0, 3
	ldr	x1, [x29, 152]
	add	x1, x1, x0
	ldr	x0, [x29, 40]
	str	x1, [x0, 16]
	nop
	ldp	x19, x20, [sp, 16]
	ldp	x29, x30, [sp], 192
LCFI154:
	ret
LFE2958:
	.align	2
	.globl __ZNSt6vectorIySaIyEE3endEv
	.weak_definition __ZNSt6vectorIySaIyEE3endEv
__ZNSt6vectorIySaIyEE3endEv:
LFB2968:
	stp	x29, x30, [sp, -48]!
LCFI155:
	mov	x29, sp
LCFI156:
	str	x0, [x29, 24]
	ldr	x0, [x29, 24]
	add	x1, x0, 8
	add	x0, x29, 40
	bl	__ZN9__gnu_cxx17__normal_iteratorIPySt6vectorIySaIyEEEC1ERKS1_
	ldr	x0, [x29, 40]
	ldp	x29, x30, [sp], 48
LCFI157:
	ret
LFE2968:
	.align	2
	.globl __ZNK9__gnu_cxx17__normal_iteratorIPySt6vectorIySaIyEEEmiEl
	.weak_definition __ZNK9__gnu_cxx17__normal_iteratorIPySt6vectorIySaIyEEEmiEl
__ZNK9__gnu_cxx17__normal_iteratorIPySt6vectorIySaIyEEEmiEl:
LFB2969:
	stp	x29, x30, [sp, -48]!
LCFI158:
	mov	x29, sp
LCFI159:
	str	x0, [x29, 24]
	str	x1, [x29, 16]
	ldr	x0, [x29, 24]
	ldr	x1, [x0]
	ldr	x0, [x29, 16]
	lsl	x0, x0, 3
	neg	x0, x0
	add	x0, x1, x0
	str	x0, [x29, 40]
	add	x1, x29, 40
	add	x0, x29, 32
	bl	__ZN9__gnu_cxx17__normal_iteratorIPySt6vectorIySaIyEEEC1ERKS1_
	ldr	x0, [x29, 32]
	ldp	x29, x30, [sp], 48
LCFI160:
	ret
LFE2969:
	.align	2
	.globl __ZNK9__gnu_cxx17__normal_iteratorIPySt6vectorIySaIyEEEdeEv
	.weak_definition __ZNK9__gnu_cxx17__normal_iteratorIPySt6vectorIySaIyEEEdeEv
__ZNK9__gnu_cxx17__normal_iteratorIPySt6vectorIySaIyEEEdeEv:
LFB2970:
	sub	sp, sp, #16
LCFI161:
	str	x0, [sp, 8]
	ldr	x0, [sp, 8]
	ldr	x0, [x0]
	add	sp, sp, 16
LCFI162:
	ret
LFE2970:
	.align	2
	.globl __ZN9__gnu_cxx17__normal_iteratorIPySt6vectorIySaIyEEEC1ERKS1_
	.weak_definition __ZN9__gnu_cxx17__normal_iteratorIPySt6vectorIySaIyEEEC1ERKS1_
__ZN9__gnu_cxx17__normal_iteratorIPySt6vectorIySaIyEEEC1ERKS1_:
LFB2974:
	sub	sp, sp, #16
LCFI163:
	str	x0, [sp, 8]
	str	x1, [sp]
	ldr	x0, [sp]
	ldr	x1, [x0]
	ldr	x0, [sp, 8]
	str	x1, [x0]
	nop
	add	sp, sp, 16
LCFI164:
	ret
LFE2974:
	.align	2
	.globl __ZNK9__gnu_cxx17__normal_iteratorIPySt6vectorIySaIyEEE4baseEv
	.weak_definition __ZNK9__gnu_cxx17__normal_iteratorIPySt6vectorIySaIyEEE4baseEv
__ZNK9__gnu_cxx17__normal_iteratorIPySt6vectorIySaIyEEE4baseEv:
LFB2975:
	sub	sp, sp, #16
LCFI165:
	str	x0, [sp, 8]
	ldr	x0, [sp, 8]
	add	sp, sp, 16
LCFI166:
	ret
LFE2975:
	.align	2
	.globl __ZNKSt6vectorIySaIyEE6cbeginEv
	.weak_definition __ZNKSt6vectorIySaIyEE6cbeginEv
__ZNKSt6vectorIySaIyEE6cbeginEv:
LFB2976:
	stp	x29, x30, [sp, -48]!
LCFI167:
	mov	x29, sp
LCFI168:
	str	x0, [x29, 24]
	ldr	x1, [x29, 24]
	add	x0, x29, 40
	bl	__ZN9__gnu_cxx17__normal_iteratorIPKySt6vectorIySaIyEEEC1ERKS2_
	ldr	x0, [x29, 40]
	ldp	x29, x30, [sp], 48
LCFI169:
	ret
LFE2976:
	.align	2
	.globl __ZN9__gnu_cxxmiIPKySt6vectorIySaIyEEEENS_17__normal_iteratorIT_T0_E15difference_typeERKS9_SC_
	.weak_definition __ZN9__gnu_cxxmiIPKySt6vectorIySaIyEEEENS_17__normal_iteratorIT_T0_E15difference_typeERKS9_SC_
__ZN9__gnu_cxxmiIPKySt6vectorIySaIyEEEENS_17__normal_iteratorIT_T0_E15difference_typeERKS9_SC_:
LFB2977:
	stp	x29, x30, [sp, -48]!
LCFI170:
	mov	x29, sp
LCFI171:
	str	x19, [sp, 16]
LCFI172:
	str	x0, [x29, 40]
	str	x1, [x29, 32]
	ldr	x0, [x29, 40]
	bl	__ZNK9__gnu_cxx17__normal_iteratorIPKySt6vectorIySaIyEEE4baseEv
	ldr	x19, [x0]
	ldr	x0, [x29, 32]
	bl	__ZNK9__gnu_cxx17__normal_iteratorIPKySt6vectorIySaIyEEE4baseEv
	ldr	x0, [x0]
	sub	x0, x19, x0
	asr	x0, x0, 3
	ldr	x19, [sp, 16]
	ldp	x29, x30, [sp], 48
LCFI173:
	ret
LFE2977:
	.align	2
	.globl __ZNK9__gnu_cxx17__normal_iteratorIPySt6vectorIySaIyEEEplEl
	.weak_definition __ZNK9__gnu_cxx17__normal_iteratorIPySt6vectorIySaIyEEEplEl
__ZNK9__gnu_cxx17__normal_iteratorIPySt6vectorIySaIyEEEplEl:
LFB2978:
	stp	x29, x30, [sp, -48]!
LCFI174:
	mov	x29, sp
LCFI175:
	str	x0, [x29, 24]
	str	x1, [x29, 16]
	ldr	x0, [x29, 24]
	ldr	x1, [x0]
	ldr	x0, [x29, 16]
	lsl	x0, x0, 3
	add	x0, x1, x0
	str	x0, [x29, 40]
	add	x1, x29, 40
	add	x0, x29, 32
	bl	__ZN9__gnu_cxx17__normal_iteratorIPySt6vectorIySaIyEEEC1ERKS1_
	ldr	x0, [x29, 32]
	ldp	x29, x30, [sp], 48
LCFI176:
	ret
LFE2978:
	.align	2
	.globl __ZNSt6vectorIySaIyEE8_M_eraseEN9__gnu_cxx17__normal_iteratorIPyS1_EE
	.weak_definition __ZNSt6vectorIySaIyEE8_M_eraseEN9__gnu_cxx17__normal_iteratorIPyS1_EE
__ZNSt6vectorIySaIyEE8_M_eraseEN9__gnu_cxx17__normal_iteratorIPyS1_EE:
LFB2979:
	stp	x29, x30, [sp, -96]!
LCFI177:
	mov	x29, sp
LCFI178:
	str	x19, [sp, 16]
LCFI179:
	str	x0, [x29, 40]
	str	x1, [x29, 32]
	add	x0, x29, 32
	mov	x1, 1
	bl	__ZNK9__gnu_cxx17__normal_iteratorIPySt6vectorIySaIyEEEplEl
	str	x0, [x29, 48]
	ldr	x0, [x29, 40]
	bl	__ZNSt6vectorIySaIyEE3endEv
	str	x0, [x29, 56]
	add	x1, x29, 56
	add	x0, x29, 48
	bl	__ZN9__gnu_cxxneIPySt6vectorIySaIyEEEEbRKNS_17__normal_iteratorIT_T0_EESA_
	and	w0, w0, 1
	cmp	w0, 0
	beq	L214
	add	x0, x29, 32
	mov	x1, 1
	bl	__ZNK9__gnu_cxx17__normal_iteratorIPySt6vectorIySaIyEEEplEl
	mov	x19, x0
	ldr	x0, [x29, 40]
	bl	__ZNSt6vectorIySaIyEE3endEv
	ldr	x2, [x29, 32]
	mov	x1, x0
	mov	x0, x19
	bl	__ZSt4moveIN9__gnu_cxx17__normal_iteratorIPySt6vectorIySaIyEEEES6_ET0_T_S8_S7_
L214:
	ldr	x0, [x29, 40]
	ldr	x0, [x0, 8]
	sub	x1, x0, #8
	ldr	x0, [x29, 40]
	str	x1, [x0, 8]
	ldr	x1, [x29, 40]
	ldr	x0, [x29, 40]
	ldr	x0, [x0, 8]
	str	x1, [x29, 88]
	str	x0, [x29, 80]
	ldr	x0, [x29, 80]
	str	x0, [x29, 72]
	ldr	x0, [x29, 88]
	str	x0, [x29, 64]
	nop
	nop
	ldr	x0, [x29, 32]
	ldr	x19, [sp, 16]
	ldp	x29, x30, [sp], 96
LCFI180:
	ret
LFE2979:
	.align	2
	.globl __ZNSt15__new_allocatorIyED2Ev
	.weak_definition __ZNSt15__new_allocatorIyED2Ev
__ZNSt15__new_allocatorIyED2Ev:
LFB3005:
	sub	sp, sp, #16
LCFI181:
	str	x0, [sp, 8]
	nop
	add	sp, sp, 16
LCFI182:
	ret
LFE3005:
	.align	2
	.globl __ZNSt12_Vector_baseIySaIyEE12_Vector_implD1Ev
	.weak_definition __ZNSt12_Vector_baseIySaIyEE12_Vector_implD1Ev
__ZNSt12_Vector_baseIySaIyEE12_Vector_implD1Ev:
LFB3010:
	stp	x29, x30, [sp, -48]!
LCFI183:
	mov	x29, sp
LCFI184:
	str	x0, [x29, 24]
	ldr	x0, [x29, 24]
	str	x0, [x29, 40]
	ldr	x0, [x29, 40]
	bl	__ZNSt15__new_allocatorIyED2Ev
	nop
	nop
	ldp	x29, x30, [sp], 48
LCFI185:
	ret
LFE3010:
	.align	2
	.globl __ZNSt12_Vector_baseIySaIyEEC2ERKS0_
	.weak_definition __ZNSt12_Vector_baseIySaIyEEC2ERKS0_
__ZNSt12_Vector_baseIySaIyEEC2ERKS0_:
LFB3011:
	stp	x29, x30, [sp, -32]!
LCFI186:
	mov	x29, sp
LCFI187:
	str	x0, [x29, 24]
	str	x1, [x29, 16]
	ldr	x0, [x29, 24]
	ldr	x1, [x29, 16]
	bl	__ZNSt12_Vector_baseIySaIyEE12_Vector_implC1ERKS0_
	nop
	ldp	x29, x30, [sp], 32
LCFI188:
	ret
LFE3011:
	.align	2
	.globl __ZNSt12_Vector_baseIySaIyEED2Ev
	.weak_definition __ZNSt12_Vector_baseIySaIyEED2Ev
__ZNSt12_Vector_baseIySaIyEED2Ev:
LFB3014:
	stp	x29, x30, [sp, -32]!
LCFI189:
	mov	x29, sp
LCFI190:
	str	x0, [x29, 24]
	ldr	x0, [x29, 24]
	ldr	x3, [x0]
	ldr	x0, [x29, 24]
	ldr	x1, [x0, 16]
	ldr	x0, [x29, 24]
	ldr	x0, [x0]
	sub	x0, x1, x0
	asr	x0, x0, 3
	mov	x2, x0
	mov	x1, x3
	ldr	x0, [x29, 24]
	bl	__ZNSt12_Vector_baseIySaIyEE13_M_deallocateEPym
	ldr	x0, [x29, 24]
	bl	__ZNSt12_Vector_baseIySaIyEE12_Vector_implD1Ev
	nop
	ldp	x29, x30, [sp], 32
LCFI191:
	ret
LFE3014:
	.section __TEXT,__gcc_except_tab
	.p2align	2
GCC_except_table9:
LLSDA3014:
	.byte	0xff
	.byte	0xff
	.byte	0x1
	.uleb128 LLSDACSE3014-LLSDACSB3014
LLSDACSB3014:
LLSDACSE3014:
	.text
	.align	2
	.globl __ZNKSt16initializer_listIyE5beginEv
	.weak_definition __ZNKSt16initializer_listIyE5beginEv
__ZNKSt16initializer_listIyE5beginEv:
LFB3016:
	sub	sp, sp, #16
LCFI192:
	str	x0, [sp, 8]
	ldr	x0, [sp, 8]
	ldr	x0, [x0]
	add	sp, sp, 16
LCFI193:
	ret
LFE3016:
	.align	2
	.globl __ZNKSt16initializer_listIyE3endEv
	.weak_definition __ZNKSt16initializer_listIyE3endEv
__ZNKSt16initializer_listIyE3endEv:
LFB3017:
	stp	x29, x30, [sp, -48]!
LCFI194:
	mov	x29, sp
LCFI195:
	str	x19, [sp, 16]
LCFI196:
	str	x0, [x29, 40]
	ldr	x0, [x29, 40]
	bl	__ZNKSt16initializer_listIyE5beginEv
	mov	x19, x0
	ldr	x0, [x29, 40]
	bl	__ZNKSt16initializer_listIyE4sizeEv
	lsl	x0, x0, 3
	add	x0, x19, x0
	ldr	x19, [sp, 16]
	ldp	x29, x30, [sp], 48
LCFI197:
	ret
LFE3017:
	.align	2
	.globl __ZNSt6vectorIySaIyEE19_M_range_initializeIPKyEEvT_S5_St20forward_iterator_tag
	.weak_definition __ZNSt6vectorIySaIyEE19_M_range_initializeIPKyEEvT_S5_St20forward_iterator_tag
__ZNSt6vectorIySaIyEE19_M_range_initializeIPKyEEvT_S5_St20forward_iterator_tag:
LFB3018:
	stp	x29, x30, [sp, -112]!
LCFI198:
	mov	x29, sp
LCFI199:
	str	x19, [sp, 16]
LCFI200:
	str	x0, [x29, 56]
	str	x1, [x29, 48]
	str	x2, [x29, 40]
	strb	w3, [x29, 32]
	ldr	x0, [x29, 48]
	str	x0, [x29, 72]
	ldr	x0, [x29, 40]
	str	x0, [x29, 96]
	ldr	x0, [x29, 72]
	nop
	str	x0, [x29, 88]
	ldr	x0, [x29, 96]
	str	x0, [x29, 80]
	ldr	x1, [x29, 80]
	ldr	x0, [x29, 88]
	sub	x0, x1, x0
	asr	x0, x0, 3
	nop
	str	x0, [x29, 104]
	ldr	x19, [x29, 56]
	ldr	x0, [x29, 56]
	bl	__ZNSt12_Vector_baseIySaIyEE19_M_get_Tp_allocatorEv
	mov	x1, x0
	ldr	x0, [x29, 104]
	bl	__ZNSt6vectorIySaIyEE17_S_check_init_lenEmRKS0_
	mov	x1, x0
	mov	x0, x19
	bl	__ZNSt12_Vector_baseIySaIyEE11_M_allocateEm
	mov	x1, x0
	ldr	x0, [x29, 56]
	str	x1, [x0]
	ldr	x0, [x29, 56]
	ldr	x1, [x0]
	ldr	x0, [x29, 104]
	lsl	x0, x0, 3
	add	x1, x1, x0
	ldr	x0, [x29, 56]
	str	x1, [x0, 16]
	ldr	x0, [x29, 56]
	ldr	x19, [x0]
	ldr	x0, [x29, 56]
	bl	__ZNSt12_Vector_baseIySaIyEE19_M_get_Tp_allocatorEv
	mov	x3, x0
	mov	x2, x19
	ldr	x1, [x29, 40]
	ldr	x0, [x29, 48]
	bl	__ZSt22__uninitialized_copy_aIPKyPyyET0_T_S4_S3_RSaIT1_E
	mov	x1, x0
	ldr	x0, [x29, 56]
	str	x1, [x0, 8]
	nop
	ldr	x19, [sp, 16]
	ldp	x29, x30, [sp], 112
LCFI201:
	ret
LFE3018:
	.align	2
	.globl __ZNSt12_Vector_baseIySaIyEE19_M_get_Tp_allocatorEv
	.weak_definition __ZNSt12_Vector_baseIySaIyEE19_M_get_Tp_allocatorEv
__ZNSt12_Vector_baseIySaIyEE19_M_get_Tp_allocatorEv:
LFB3020:
	sub	sp, sp, #16
LCFI202:
	str	x0, [sp, 8]
	ldr	x0, [sp, 8]
	add	sp, sp, 16
LCFI203:
	ret
LFE3020:
	.align	2
	.globl __ZSt7forwardIyEOT_RNSt16remove_referenceIS0_E4typeE
	.weak_definition __ZSt7forwardIyEOT_RNSt16remove_referenceIS0_E4typeE
__ZSt7forwardIyEOT_RNSt16remove_referenceIS0_E4typeE:
LFB3083:
	sub	sp, sp, #16
LCFI204:
	str	x0, [sp, 8]
	ldr	x0, [sp, 8]
	add	sp, sp, 16
LCFI205:
	ret
LFE3083:
	.align	2
	.globl __ZZNSt6vectorIySaIyEE17_M_realloc_appendIJyEEEvDpOT_EN6_GuardC1EPymRS0_
	.weak_definition __ZZNSt6vectorIySaIyEE17_M_realloc_appendIJyEEEvDpOT_EN6_GuardC1EPymRS0_
__ZZNSt6vectorIySaIyEE17_M_realloc_appendIJyEEEvDpOT_EN6_GuardC1EPymRS0_:
LFB3088:
	sub	sp, sp, #32
LCFI206:
	str	x0, [sp, 24]
	str	x1, [sp, 16]
	str	x2, [sp, 8]
	str	x3, [sp]
	ldr	x0, [sp, 24]
	ldr	x1, [sp, 16]
	str	x1, [x0]
	ldr	x0, [sp, 24]
	ldr	x1, [sp, 8]
	str	x1, [x0, 8]
	ldr	x0, [sp, 24]
	ldr	x1, [sp]
	str	x1, [x0, 16]
	nop
	add	sp, sp, 32
LCFI207:
	ret
LFE3088:
	.align	2
	.globl __ZZNSt6vectorIySaIyEE17_M_realloc_appendIJyEEEvDpOT_EN6_GuardD1Ev
	.weak_definition __ZZNSt6vectorIySaIyEE17_M_realloc_appendIJyEEEvDpOT_EN6_GuardD1Ev
__ZZNSt6vectorIySaIyEE17_M_realloc_appendIJyEEEvDpOT_EN6_GuardD1Ev:
LFB3091:
	stp	x29, x30, [sp, -64]!
LCFI208:
	mov	x29, sp
LCFI209:
	str	x0, [x29, 24]
	ldr	x0, [x29, 24]
	ldr	x0, [x0]
	cmp	x0, 0
	beq	L235
	ldr	x0, [x29, 24]
	ldr	x2, [x0, 16]
	ldr	x0, [x29, 24]
	ldr	x1, [x0]
	ldr	x0, [x29, 24]
	ldr	x0, [x0, 8]
	str	x2, [x29, 56]
	str	x1, [x29, 48]
	str	x0, [x29, 40]
	ldr	x2, [x29, 40]
	ldr	x1, [x29, 48]
	ldr	x0, [x29, 56]
	bl	__ZNSt15__new_allocatorIyE10deallocateEPym
	nop
L235:
	nop
	ldp	x29, x30, [sp], 64
LCFI210:
	ret
LFE3091:
	.align	2
	.globl __ZNSt6vectorIySaIyEE17_M_realloc_appendIJyEEEvDpOT_
	.weak_definition __ZNSt6vectorIySaIyEE17_M_realloc_appendIJyEEEvDpOT_
__ZNSt6vectorIySaIyEE17_M_realloc_appendIJyEEEvDpOT_:
LFB3085:
	stp	x29, x30, [sp, -192]!
LCFI211:
	mov	x29, sp
LCFI212:
	stp	x19, x20, [sp, 16]
LCFI213:
	str	x0, [x29, 40]
	str	x1, [x29, 32]
	adrp	x0, lC11@PAGE
	add	x2, x0, lC11@PAGEOFF;
	mov	x1, 1
	ldr	x0, [x29, 40]
	bl	__ZNKSt6vectorIySaIyEE12_M_check_lenEmPKc
	str	x0, [x29, 184]
	ldr	x0, [x29, 184]
	cmp	x0, 0
	bne	L237
	brk #1000
L237:
	ldr	x0, [x29, 40]
	ldr	x0, [x0]
	str	x0, [x29, 176]
	ldr	x0, [x29, 40]
	ldr	x0, [x0, 8]
	str	x0, [x29, 168]
	ldr	x0, [x29, 40]
	bl	__ZNSt6vectorIySaIyEE3endEv
	str	x0, [x29, 80]
	ldr	x0, [x29, 40]
	bl	__ZNSt6vectorIySaIyEE5beginEv
	str	x0, [x29, 88]
	add	x1, x29, 88
	add	x0, x29, 80
	bl	__ZN9__gnu_cxxmiIPySt6vectorIySaIyEEEENS_17__normal_iteratorIT_T0_E15difference_typeERKS8_SB_
	str	x0, [x29, 160]
	ldr	x0, [x29, 40]
	ldr	x1, [x29, 184]
	bl	__ZNSt12_Vector_baseIySaIyEE11_M_allocateEm
	str	x0, [x29, 152]
	ldr	x0, [x29, 152]
	str	x0, [x29, 144]
	ldr	x1, [x29, 40]
	add	x0, x29, 56
	mov	x3, x1
	ldr	x2, [x29, 184]
	ldr	x1, [x29, 152]
	bl	__ZZNSt6vectorIySaIyEE17_M_realloc_appendIJyEEEvDpOT_EN6_GuardC1EPymRS0_
	ldr	x19, [x29, 40]
	ldr	x0, [x29, 160]
	lsl	x0, x0, 3
	ldr	x1, [x29, 152]
	add	x0, x1, x0
	bl	__ZSt12__to_addressIyEPT_S1_
	mov	x20, x0
	ldr	x0, [x29, 32]
	bl	__ZSt7forwardIyEOT_RNSt16remove_referenceIS0_E4typeE
	str	x19, [x29, 136]
	str	x20, [x29, 128]
	str	x0, [x29, 120]
	ldr	x0, [x29, 120]
	bl	__ZSt7forwardIyEOT_RNSt16remove_referenceIS0_E4typeE
	mov	x1, x0
	ldr	x0, [x29, 128]
	str	x0, [x29, 112]
	str	x1, [x29, 104]
	ldr	x0, [x29, 136]
	str	x0, [x29, 96]
	ldr	x0, [x29, 112]
	mov	x1, x0
	mov	x0, 8
	bl	__ZnwmPv
	mov	x19, x0
	ldr	x0, [x29, 104]
	bl	__ZSt7forwardIyEOT_RNSt16remove_referenceIS0_E4typeE
	ldr	x0, [x0]
	str	x0, [x19]
	nop
	nop
	ldr	x0, [x29, 40]
	bl	__ZNSt12_Vector_baseIySaIyEE19_M_get_Tp_allocatorEv
	mov	x3, x0
	ldr	x2, [x29, 152]
	ldr	x1, [x29, 168]
	ldr	x0, [x29, 176]
	bl	__ZNSt6vectorIySaIyEE11_S_relocateEPyS2_S2_RS0_
	str	x0, [x29, 144]
	ldr	x0, [x29, 144]
	add	x0, x0, 8
	str	x0, [x29, 144]
	ldr	x0, [x29, 176]
	str	x0, [x29, 56]
	ldr	x0, [x29, 40]
	ldr	x1, [x0, 16]
	ldr	x0, [x29, 176]
	sub	x0, x1, x0
	asr	x0, x0, 3
	str	x0, [x29, 64]
	add	x0, x29, 56
	bl	__ZZNSt6vectorIySaIyEE17_M_realloc_appendIJyEEEvDpOT_EN6_GuardD1Ev
	ldr	x0, [x29, 40]
	ldr	x1, [x29, 152]
	str	x1, [x0]
	ldr	x0, [x29, 40]
	ldr	x1, [x29, 144]
	str	x1, [x0, 8]
	ldr	x0, [x29, 184]
	lsl	x0, x0, 3
	ldr	x1, [x29, 152]
	add	x1, x1, x0
	ldr	x0, [x29, 40]
	str	x1, [x0, 16]
	nop
	ldp	x19, x20, [sp, 16]
	ldp	x29, x30, [sp], 192
LCFI214:
	ret
LFE3085:
	.align	2
	.globl __ZSt7forwardIRKyEOT_RNSt16remove_referenceIS2_E4typeE
	.weak_definition __ZSt7forwardIRKyEOT_RNSt16remove_referenceIS2_E4typeE
__ZSt7forwardIRKyEOT_RNSt16remove_referenceIS2_E4typeE:
LFB3092:
	sub	sp, sp, #16
LCFI215:
	str	x0, [sp, 8]
	ldr	x0, [sp, 8]
	add	sp, sp, 16
LCFI216:
	ret
LFE3092:
	.align	2
	.globl __ZNKSt6vectorIySaIyEE12_M_check_lenEmPKc
	.weak_definition __ZNKSt6vectorIySaIyEE12_M_check_lenEmPKc
__ZNKSt6vectorIySaIyEE12_M_check_lenEmPKc:
LFB3094:
	stp	x29, x30, [sp, -80]!
LCFI217:
	mov	x29, sp
LCFI218:
	str	x19, [sp, 16]
LCFI219:
	str	x0, [x29, 56]
	str	x1, [x29, 48]
	str	x2, [x29, 40]
	ldr	x0, [x29, 56]
	bl	__ZNKSt6vectorIySaIyEE8max_sizeEv
	mov	x19, x0
	ldr	x0, [x29, 56]
	bl	__ZNKSt6vectorIySaIyEE4sizeEv
	sub	x1, x19, x0
	ldr	x0, [x29, 48]
	cmp	x1, x0
	cset	w0, cc
	and	w0, w0, 255
	and	w0, w0, 1
	cmp	w0, 0
	beq	L241
	ldr	x0, [x29, 40]
	bl	__ZSt20__throw_length_errorPKc
L241:
	ldr	x0, [x29, 56]
	bl	__ZNKSt6vectorIySaIyEE4sizeEv
	mov	x19, x0
	ldr	x0, [x29, 56]
	bl	__ZNKSt6vectorIySaIyEE4sizeEv
	str	x0, [x29, 64]
	add	x1, x29, 48
	add	x0, x29, 64
	bl	__ZSt3maxImERKT_S2_S2_
	ldr	x0, [x0]
	add	x0, x19, x0
	str	x0, [x29, 72]
	ldr	x0, [x29, 56]
	bl	__ZNKSt6vectorIySaIyEE4sizeEv
	mov	x1, x0
	ldr	x0, [x29, 72]
	cmp	x0, x1
	bcc	L242
	ldr	x0, [x29, 56]
	bl	__ZNKSt6vectorIySaIyEE8max_sizeEv
	mov	x1, x0
	ldr	x0, [x29, 72]
	cmp	x0, x1
	bls	L243
L242:
	ldr	x0, [x29, 56]
	bl	__ZNKSt6vectorIySaIyEE8max_sizeEv
	b	L244
L243:
	ldr	x0, [x29, 72]
L244:
	ldr	x19, [sp, 16]
	ldp	x29, x30, [sp], 80
LCFI220:
	ret
LFE3094:
	.align	2
	.globl __ZN9__gnu_cxxmiIPySt6vectorIySaIyEEEENS_17__normal_iteratorIT_T0_E15difference_typeERKS8_SB_
	.weak_definition __ZN9__gnu_cxxmiIPySt6vectorIySaIyEEEENS_17__normal_iteratorIT_T0_E15difference_typeERKS8_SB_
__ZN9__gnu_cxxmiIPySt6vectorIySaIyEEEENS_17__normal_iteratorIT_T0_E15difference_typeERKS8_SB_:
LFB3095:
	stp	x29, x30, [sp, -48]!
LCFI221:
	mov	x29, sp
LCFI222:
	str	x19, [sp, 16]
LCFI223:
	str	x0, [x29, 40]
	str	x1, [x29, 32]
	ldr	x0, [x29, 40]
	bl	__ZNK9__gnu_cxx17__normal_iteratorIPySt6vectorIySaIyEEE4baseEv
	ldr	x19, [x0]
	ldr	x0, [x29, 32]
	bl	__ZNK9__gnu_cxx17__normal_iteratorIPySt6vectorIySaIyEEE4baseEv
	ldr	x0, [x0]
	sub	x0, x19, x0
	asr	x0, x0, 3
	ldr	x19, [sp, 16]
	ldp	x29, x30, [sp], 48
LCFI224:
	ret
LFE3095:
	.align	2
	.globl __ZNSt12_Vector_baseIySaIyEE11_M_allocateEm
	.weak_definition __ZNSt12_Vector_baseIySaIyEE11_M_allocateEm
__ZNSt12_Vector_baseIySaIyEE11_M_allocateEm:
LFB3096:
	stp	x29, x30, [sp, -48]!
LCFI225:
	mov	x29, sp
LCFI226:
	str	x0, [x29, 24]
	str	x1, [x29, 16]
	ldr	x0, [x29, 16]
	cmp	x0, 0
	beq	L249
	ldr	x0, [x29, 24]
	str	x0, [x29, 40]
	ldr	x0, [x29, 16]
	str	x0, [x29, 32]
	mov	x2, 0
	ldr	x1, [x29, 32]
	ldr	x0, [x29, 40]
	bl	__ZNSt15__new_allocatorIyE8allocateEmPKv
	nop
	b	L251
L249:
	mov	x0, 0
L251:
	ldp	x29, x30, [sp], 48
LCFI227:
	ret
LFE3096:
	.align	2
	.globl __ZSt12__to_addressIyEPT_S1_
	.weak_definition __ZSt12__to_addressIyEPT_S1_
__ZSt12__to_addressIyEPT_S1_:
LFB3098:
	sub	sp, sp, #16
LCFI228:
	str	x0, [sp, 8]
	ldr	x0, [sp, 8]
	add	sp, sp, 16
LCFI229:
	ret
LFE3098:
	.align	2
	.globl __ZNSt6vectorIySaIyEE11_S_relocateEPyS2_S2_RS0_
	.weak_definition __ZNSt6vectorIySaIyEE11_S_relocateEPyS2_S2_RS0_
__ZNSt6vectorIySaIyEE11_S_relocateEPyS2_S2_RS0_:
LFB3099:
	stp	x29, x30, [sp, -48]!
LCFI230:
	mov	x29, sp
LCFI231:
	str	x0, [x29, 40]
	str	x1, [x29, 32]
	str	x2, [x29, 24]
	str	x3, [x29, 16]
	ldr	x3, [x29, 16]
	ldr	x2, [x29, 24]
	ldr	x1, [x29, 32]
	ldr	x0, [x29, 40]
	bl	__ZSt12__relocate_aIPyS0_SaIyEET0_T_S3_S2_RT1_
	ldp	x29, x30, [sp], 48
LCFI232:
	ret
LFE3099:
	.align	2
	.globl __ZN9__gnu_cxx17__normal_iteratorIPKySt6vectorIySaIyEEEC1ERKS2_
	.weak_definition __ZN9__gnu_cxx17__normal_iteratorIPKySt6vectorIySaIyEEEC1ERKS2_
__ZN9__gnu_cxx17__normal_iteratorIPKySt6vectorIySaIyEEEC1ERKS2_:
LFB3103:
	sub	sp, sp, #16
LCFI233:
	str	x0, [sp, 8]
	str	x1, [sp]
	ldr	x0, [sp]
	ldr	x1, [x0]
	ldr	x0, [sp, 8]
	str	x1, [x0]
	nop
	add	sp, sp, 16
LCFI234:
	ret
LFE3103:
	.align	2
	.globl __ZNK9__gnu_cxx17__normal_iteratorIPKySt6vectorIySaIyEEE4baseEv
	.weak_definition __ZNK9__gnu_cxx17__normal_iteratorIPKySt6vectorIySaIyEEE4baseEv
__ZNK9__gnu_cxx17__normal_iteratorIPKySt6vectorIySaIyEEE4baseEv:
LFB3104:
	sub	sp, sp, #16
LCFI235:
	str	x0, [sp, 8]
	ldr	x0, [sp, 8]
	add	sp, sp, 16
LCFI236:
	ret
LFE3104:
	.align	2
	.globl __ZN9__gnu_cxxneIPySt6vectorIySaIyEEEEbRKNS_17__normal_iteratorIT_T0_EESA_
	.weak_definition __ZN9__gnu_cxxneIPySt6vectorIySaIyEEEEbRKNS_17__normal_iteratorIT_T0_EESA_
__ZN9__gnu_cxxneIPySt6vectorIySaIyEEEEbRKNS_17__normal_iteratorIT_T0_EESA_:
LFB3105:
	stp	x29, x30, [sp, -48]!
LCFI237:
	mov	x29, sp
LCFI238:
	str	x19, [sp, 16]
LCFI239:
	str	x0, [x29, 40]
	str	x1, [x29, 32]
	ldr	x0, [x29, 40]
	bl	__ZNK9__gnu_cxx17__normal_iteratorIPySt6vectorIySaIyEEE4baseEv
	ldr	x19, [x0]
	ldr	x0, [x29, 32]
	bl	__ZNK9__gnu_cxx17__normal_iteratorIPySt6vectorIySaIyEEE4baseEv
	ldr	x0, [x0]
	cmp	x19, x0
	cset	w0, ne
	and	w0, w0, 255
	ldr	x19, [sp, 16]
	ldp	x29, x30, [sp], 48
LCFI240:
	ret
LFE3105:
	.align	2
	.globl __ZSt4moveIN9__gnu_cxx17__normal_iteratorIPySt6vectorIySaIyEEEES6_ET0_T_S8_S7_
	.weak_definition __ZSt4moveIN9__gnu_cxx17__normal_iteratorIPySt6vectorIySaIyEEEES6_ET0_T_S8_S7_
__ZSt4moveIN9__gnu_cxx17__normal_iteratorIPySt6vectorIySaIyEEEES6_ET0_T_S8_S7_:
LFB3106:
	stp	x29, x30, [sp, -64]!
LCFI241:
	mov	x29, sp
LCFI242:
	str	x19, [sp, 16]
LCFI243:
	str	x0, [x29, 56]
	str	x1, [x29, 48]
	str	x2, [x29, 40]
	ldr	x0, [x29, 56]
	bl	__ZSt12__miter_baseIN9__gnu_cxx17__normal_iteratorIPySt6vectorIySaIyEEEEET_S7_
	mov	x19, x0
	ldr	x0, [x29, 48]
	bl	__ZSt12__miter_baseIN9__gnu_cxx17__normal_iteratorIPySt6vectorIySaIyEEEEET_S7_
	ldr	x2, [x29, 40]
	mov	x1, x0
	mov	x0, x19
	bl	__ZSt13__copy_move_aILb1EN9__gnu_cxx17__normal_iteratorIPySt6vectorIySaIyEEEES6_ET1_T0_S8_S7_
	ldr	x19, [sp, 16]
	ldp	x29, x30, [sp], 64
LCFI244:
	ret
LFE3106:
	.align	2
	.globl __ZNSt12_Vector_baseIySaIyEE12_Vector_implC1ERKS0_
	.weak_definition __ZNSt12_Vector_baseIySaIyEE12_Vector_implC1ERKS0_
__ZNSt12_Vector_baseIySaIyEE12_Vector_implC1ERKS0_:
LFB3126:
	stp	x29, x30, [sp, -64]!
LCFI245:
	mov	x29, sp
LCFI246:
	str	x0, [x29, 24]
	str	x1, [x29, 16]
	ldr	x0, [x29, 24]
	str	x0, [x29, 56]
	ldr	x0, [x29, 16]
	str	x0, [x29, 48]
	ldr	x0, [x29, 56]
	str	x0, [x29, 40]
	ldr	x0, [x29, 48]
	str	x0, [x29, 32]
	nop
	nop
	ldr	x0, [x29, 24]
	bl	__ZNSt12_Vector_baseIySaIyEE17_Vector_impl_dataC2Ev
	nop
	ldp	x29, x30, [sp], 64
LCFI247:
	ret
LFE3126:
	.align	2
	.globl __ZNSt12_Vector_baseIySaIyEE13_M_deallocateEPym
	.weak_definition __ZNSt12_Vector_baseIySaIyEE13_M_deallocateEPym
__ZNSt12_Vector_baseIySaIyEE13_M_deallocateEPym:
LFB3127:
	stp	x29, x30, [sp, -80]!
LCFI248:
	mov	x29, sp
LCFI249:
	str	x0, [x29, 40]
	str	x1, [x29, 32]
	str	x2, [x29, 24]
	ldr	x0, [x29, 32]
	cmp	x0, 0
	beq	L267
	ldr	x0, [x29, 40]
	str	x0, [x29, 72]
	ldr	x0, [x29, 32]
	str	x0, [x29, 64]
	ldr	x0, [x29, 24]
	str	x0, [x29, 56]
	ldr	x2, [x29, 56]
	ldr	x1, [x29, 64]
	ldr	x0, [x29, 72]
	bl	__ZNSt15__new_allocatorIyE10deallocateEPym
	nop
L267:
	nop
	ldp	x29, x30, [sp], 80
LCFI250:
	ret
LFE3127:
	.align	2
	.globl __ZNKSt16initializer_listIyE4sizeEv
	.weak_definition __ZNKSt16initializer_listIyE4sizeEv
__ZNKSt16initializer_listIyE4sizeEv:
LFB3128:
	sub	sp, sp, #16
LCFI251:
	str	x0, [sp, 8]
	ldr	x0, [sp, 8]
	ldr	x0, [x0, 8]
	add	sp, sp, 16
LCFI252:
	ret
LFE3128:
	.cstring
	.align	3
lC12:
	.ascii "cannot create std::vector larger than max_size()\0"
	.text
	.align	2
	.globl __ZNSt6vectorIySaIyEE17_S_check_init_lenEmRKS0_
	.weak_definition __ZNSt6vectorIySaIyEE17_S_check_init_lenEmRKS0_
__ZNSt6vectorIySaIyEE17_S_check_init_lenEmRKS0_:
LFB3131:
	stp	x29, x30, [sp, -80]!
LCFI253:
	mov	x29, sp
LCFI254:
	str	x19, [sp, 16]
LCFI255:
	str	x0, [x29, 40]
	str	x1, [x29, 32]
	ldr	x0, [x29, 32]
	str	x0, [x29, 72]
	add	x0, x29, 48
	str	x0, [x29, 64]
	ldr	x0, [x29, 72]
	str	x0, [x29, 56]
	nop
	nop
	add	x0, x29, 48
	bl	__ZNSt6vectorIySaIyEE11_S_max_sizeERKS0_
	mov	x1, x0
	ldr	x0, [x29, 40]
	cmp	x0, x1
	cset	w0, hi
	and	w19, w0, 255
	add	x0, x29, 48
	bl	__ZNSt15__new_allocatorIyED2Ev
	nop
	and	w0, w19, 1
	cmp	w0, 0
	beq	L271
	adrp	x0, lC12@PAGE
	add	x0, x0, lC12@PAGEOFF;
	bl	__ZSt20__throw_length_errorPKc
L271:
	ldr	x0, [x29, 40]
	ldr	x19, [sp, 16]
	ldp	x29, x30, [sp], 80
LCFI256:
	ret
LFE3131:
	.align	2
	.globl __ZSt22__uninitialized_copy_aIPKyPyyET0_T_S4_S3_RSaIT1_E
	.weak_definition __ZSt22__uninitialized_copy_aIPKyPyyET0_T_S4_S3_RSaIT1_E
__ZSt22__uninitialized_copy_aIPKyPyyET0_T_S4_S3_RSaIT1_E:
LFB3132:
	stp	x29, x30, [sp, -48]!
LCFI257:
	mov	x29, sp
LCFI258:
	str	x0, [x29, 40]
	str	x1, [x29, 32]
	str	x2, [x29, 24]
	str	x3, [x29, 16]
	ldr	x2, [x29, 24]
	ldr	x1, [x29, 32]
	ldr	x0, [x29, 40]
	bl	__ZSt18uninitialized_copyIPKyPyET0_T_S4_S3_
	ldp	x29, x30, [sp], 48
LCFI259:
	ret
LFE3132:
	.align	2
	.globl __ZSt8_DestroyIPyEvT_S1_
	.weak_definition __ZSt8_DestroyIPyEvT_S1_
__ZSt8_DestroyIPyEvT_S1_:
LFB3133:
	stp	x29, x30, [sp, -32]!
LCFI260:
	mov	x29, sp
LCFI261:
	str	x0, [x29, 24]
	str	x1, [x29, 16]
	ldr	x1, [x29, 16]
	ldr	x0, [x29, 24]
	bl	__ZNSt12_Destroy_auxILb1EE9__destroyIPyEEvT_S3_
	nop
	ldp	x29, x30, [sp], 32
LCFI262:
	ret
LFE3133:
	.align	2
	.globl __ZNKSt6vectorIySaIyEE8max_sizeEv
	.weak_definition __ZNKSt6vectorIySaIyEE8max_sizeEv
__ZNKSt6vectorIySaIyEE8max_sizeEv:
LFB3193:
	stp	x29, x30, [sp, -32]!
LCFI263:
	mov	x29, sp
LCFI264:
	str	x0, [x29, 24]
	ldr	x0, [x29, 24]
	bl	__ZNKSt12_Vector_baseIySaIyEE19_M_get_Tp_allocatorEv
	bl	__ZNSt6vectorIySaIyEE11_S_max_sizeERKS0_
	ldp	x29, x30, [sp], 32
LCFI265:
	ret
LFE3193:
	.align	2
	.globl __ZSt3maxImERKT_S2_S2_
	.weak_definition __ZSt3maxImERKT_S2_S2_
__ZSt3maxImERKT_S2_S2_:
LFB3194:
	sub	sp, sp, #16
LCFI266:
	str	x0, [sp, 8]
	str	x1, [sp]
	ldr	x0, [sp, 8]
	ldr	x1, [x0]
	ldr	x0, [sp]
	ldr	x0, [x0]
	cmp	x1, x0
	bcs	L279
	ldr	x0, [sp]
	b	L280
L279:
	ldr	x0, [sp, 8]
L280:
	add	sp, sp, 16
LCFI267:
	ret
LFE3194:
	.align	2
	.globl __ZNSt15__new_allocatorIyE10deallocateEPym
	.weak_definition __ZNSt15__new_allocatorIyE10deallocateEPym
__ZNSt15__new_allocatorIyE10deallocateEPym:
LFB3196:
	stp	x29, x30, [sp, -48]!
LCFI268:
	mov	x29, sp
LCFI269:
	str	x0, [x29, 40]
	str	x1, [x29, 32]
	str	x2, [x29, 24]
	ldr	x0, [x29, 24]
	lsl	x0, x0, 3
	mov	x1, x0
	ldr	x0, [x29, 32]
	bl	__ZdlPvm
	ldp	x29, x30, [sp], 48
LCFI270:
	ret
LFE3196:
	.align	2
	.globl __ZSt12__relocate_aIPyS0_SaIyEET0_T_S3_S2_RT1_
	.weak_definition __ZSt12__relocate_aIPyS0_SaIyEET0_T_S3_S2_RT1_
__ZSt12__relocate_aIPyS0_SaIyEET0_T_S3_S2_RT1_:
LFB3197:
	stp	x29, x30, [sp, -64]!
LCFI271:
	mov	x29, sp
LCFI272:
	stp	x19, x20, [sp, 16]
LCFI273:
	str	x0, [x29, 56]
	str	x1, [x29, 48]
	str	x2, [x29, 40]
	str	x3, [x29, 32]
	ldr	x0, [x29, 56]
	bl	__ZSt12__niter_baseIPyET_S1_
	mov	x19, x0
	ldr	x0, [x29, 48]
	bl	__ZSt12__niter_baseIPyET_S1_
	mov	x20, x0
	ldr	x0, [x29, 40]
	bl	__ZSt12__niter_baseIPyET_S1_
	ldr	x3, [x29, 32]
	mov	x2, x0
	mov	x1, x20
	mov	x0, x19
	bl	__ZSt14__relocate_a_1IyyENSt9enable_ifIXsrSt24__is_bitwise_relocatableIT_vE5valueEPS2_E4typeES4_S4_S4_RSaIT0_E
	ldp	x19, x20, [sp, 16]
	ldp	x29, x30, [sp], 64
LCFI274:
	ret
LFE3197:
	.align	2
	.globl __ZSt12__miter_baseIN9__gnu_cxx17__normal_iteratorIPySt6vectorIySaIyEEEEET_S7_
	.weak_definition __ZSt12__miter_baseIN9__gnu_cxx17__normal_iteratorIPySt6vectorIySaIyEEEEET_S7_
__ZSt12__miter_baseIN9__gnu_cxx17__normal_iteratorIPySt6vectorIySaIyEEEEET_S7_:
LFB3198:
	sub	sp, sp, #16
LCFI275:
	str	x0, [sp, 8]
	ldr	x0, [sp, 8]
	add	sp, sp, 16
LCFI276:
	ret
LFE3198:
	.align	2
	.globl __ZSt13__copy_move_aILb1EN9__gnu_cxx17__normal_iteratorIPySt6vectorIySaIyEEEES6_ET1_T0_S8_S7_
	.weak_definition __ZSt13__copy_move_aILb1EN9__gnu_cxx17__normal_iteratorIPySt6vectorIySaIyEEEES6_ET1_T0_S8_S7_
__ZSt13__copy_move_aILb1EN9__gnu_cxx17__normal_iteratorIPySt6vectorIySaIyEEEES6_ET1_T0_S8_S7_:
LFB3199:
	stp	x29, x30, [sp, -64]!
LCFI277:
	mov	x29, sp
LCFI278:
	stp	x19, x20, [sp, 16]
LCFI279:
	str	x0, [x29, 56]
	str	x1, [x29, 48]
	str	x2, [x29, 40]
	ldr	x0, [x29, 56]
	bl	__ZSt12__niter_baseIPySt6vectorIySaIyEEET_N9__gnu_cxx17__normal_iteratorIS4_T0_EE
	mov	x19, x0
	ldr	x0, [x29, 48]
	bl	__ZSt12__niter_baseIPySt6vectorIySaIyEEET_N9__gnu_cxx17__normal_iteratorIS4_T0_EE
	mov	x20, x0
	ldr	x0, [x29, 40]
	bl	__ZSt12__niter_baseIPySt6vectorIySaIyEEET_N9__gnu_cxx17__normal_iteratorIS4_T0_EE
	mov	x2, x0
	mov	x1, x20
	mov	x0, x19
	bl	__ZSt14__copy_move_a1ILb1EPyS0_ET1_T0_S2_S1_
	mov	x1, x0
	ldr	x0, [x29, 40]
	bl	__ZSt12__niter_wrapIN9__gnu_cxx17__normal_iteratorIPySt6vectorIySaIyEEEES2_ET_S7_T0_
	ldp	x19, x20, [sp, 16]
	ldp	x29, x30, [sp], 64
LCFI280:
	ret
LFE3199:
	.align	2
	.globl __ZNSt12_Vector_baseIySaIyEE17_Vector_impl_dataC2Ev
	.weak_definition __ZNSt12_Vector_baseIySaIyEE17_Vector_impl_dataC2Ev
__ZNSt12_Vector_baseIySaIyEE17_Vector_impl_dataC2Ev:
LFB3204:
	sub	sp, sp, #16
LCFI281:
	str	x0, [sp, 8]
	ldr	x0, [sp, 8]
	str	xzr, [x0]
	ldr	x0, [sp, 8]
	str	xzr, [x0, 8]
	ldr	x0, [sp, 8]
	str	xzr, [x0, 16]
	nop
	add	sp, sp, 16
LCFI282:
	ret
LFE3204:
	.align	2
	.globl __ZNSt6vectorIySaIyEE11_S_max_sizeERKS0_
	.weak_definition __ZNSt6vectorIySaIyEE11_S_max_sizeERKS0_
__ZNSt6vectorIySaIyEE11_S_max_sizeERKS0_:
LFB3206:
	stp	x29, x30, [sp, -80]!
LCFI283:
	mov	x29, sp
LCFI284:
	str	x0, [x29, 24]
	mov	x0, 1152921504606846975
	str	x0, [x29, 48]
	ldr	x0, [x29, 24]
	str	x0, [x29, 72]
	ldr	x0, [x29, 72]
	str	x0, [x29, 64]
	ldr	x0, [x29, 64]
	str	x0, [x29, 56]
	mov	x0, 1152921504606846975
	nop
	nop
	str	x0, [x29, 40]
	add	x1, x29, 40
	add	x0, x29, 48
	bl	__ZSt3minImERKT_S2_S2_
	ldr	x0, [x0]
	ldp	x29, x30, [sp], 80
LCFI285:
	ret
LFE3206:
	.align	2
	.globl __ZSt18uninitialized_copyIPKyPyET0_T_S4_S3_
	.weak_definition __ZSt18uninitialized_copyIPKyPyET0_T_S4_S3_
__ZSt18uninitialized_copyIPKyPyET0_T_S4_S3_:
LFB3207:
	stp	x29, x30, [sp, -64]!
LCFI286:
	mov	x29, sp
LCFI287:
	str	x0, [x29, 40]
	str	x1, [x29, 32]
	str	x2, [x29, 24]
	mov	w0, 1
	strb	w0, [x29, 63]
	mov	w0, 1
	strb	w0, [x29, 62]
	ldr	x2, [x29, 24]
	ldr	x1, [x29, 32]
	ldr	x0, [x29, 40]
	bl	__ZNSt20__uninitialized_copyILb1EE13__uninit_copyIPKyPyEET0_T_S6_S5_
	ldp	x29, x30, [sp], 64
LCFI288:
	ret
LFE3207:
	.align	2
	.globl __ZNSt12_Destroy_auxILb1EE9__destroyIPyEEvT_S3_
	.weak_definition __ZNSt12_Destroy_auxILb1EE9__destroyIPyEEvT_S3_
__ZNSt12_Destroy_auxILb1EE9__destroyIPyEEvT_S3_:
LFB3209:
	sub	sp, sp, #16
LCFI289:
	str	x0, [sp, 8]
	str	x1, [sp]
	nop
	add	sp, sp, 16
LCFI290:
	ret
LFE3209:
	.align	2
	.globl __ZNKSt12_Vector_baseIySaIyEE19_M_get_Tp_allocatorEv
	.weak_definition __ZNKSt12_Vector_baseIySaIyEE19_M_get_Tp_allocatorEv
__ZNKSt12_Vector_baseIySaIyEE19_M_get_Tp_allocatorEv:
LFB3236:
	sub	sp, sp, #16
LCFI291:
	str	x0, [sp, 8]
	ldr	x0, [sp, 8]
	add	sp, sp, 16
LCFI292:
	ret
LFE3236:
	.align	2
	.globl __ZNSt15__new_allocatorIyE8allocateEmPKv
	.weak_definition __ZNSt15__new_allocatorIyE8allocateEmPKv
__ZNSt15__new_allocatorIyE8allocateEmPKv:
LFB3237:
	stp	x29, x30, [sp, -64]!
LCFI293:
	mov	x29, sp
LCFI294:
	str	x0, [x29, 40]
	str	x1, [x29, 32]
	str	x2, [x29, 24]
	ldr	x0, [x29, 40]
	str	x0, [x29, 56]
	mov	x0, 1152921504606846975
	ldr	x1, [x29, 32]
	cmp	x1, x0
	cset	w0, hi
	and	w0, w0, 255
	and	x0, x0, 255
	cmp	x0, 0
	cset	w0, ne
	and	w0, w0, 255
	and	w0, w0, 1
	cmp	w0, 0
	beq	L302
	ldr	x1, [x29, 32]
	mov	x0, 2305843009213693951
	cmp	x1, x0
	bls	L303
	bl	__ZSt28__throw_bad_array_new_lengthv
L303:
	bl	__ZSt17__throw_bad_allocv
L302:
	ldr	x0, [x29, 32]
	lsl	x0, x0, 3
	bl	__Znwm
	nop
	ldp	x29, x30, [sp], 64
LCFI295:
	ret
LFE3237:
	.align	2
	.globl __ZSt12__niter_baseIPyET_S1_
	.weak_definition __ZSt12__niter_baseIPyET_S1_
__ZSt12__niter_baseIPyET_S1_:
LFB3239:
	sub	sp, sp, #16
LCFI296:
	str	x0, [sp, 8]
	ldr	x0, [sp, 8]
	add	sp, sp, 16
LCFI297:
	ret
LFE3239:
	.align	2
	.globl __ZSt14__relocate_a_1IyyENSt9enable_ifIXsrSt24__is_bitwise_relocatableIT_vE5valueEPS2_E4typeES4_S4_S4_RSaIT0_E
	.weak_definition __ZSt14__relocate_a_1IyyENSt9enable_ifIXsrSt24__is_bitwise_relocatableIT_vE5valueEPS2_E4typeES4_S4_S4_RSaIT0_E
__ZSt14__relocate_a_1IyyENSt9enable_ifIXsrSt24__is_bitwise_relocatableIT_vE5valueEPS2_E4typeES4_S4_S4_RSaIT0_E:
LFB3240:
	stp	x29, x30, [sp, -64]!
LCFI298:
	mov	x29, sp
LCFI299:
	str	x0, [x29, 40]
	str	x1, [x29, 32]
	str	x2, [x29, 24]
	str	x3, [x29, 16]
	ldr	x1, [x29, 32]
	ldr	x0, [x29, 40]
	sub	x0, x1, x0
	asr	x0, x0, 3
	str	x0, [x29, 56]
	ldr	x0, [x29, 56]
	cmp	x0, 0
	ble	L308
	ldr	x0, [x29, 56]
	lsl	x2, x0, 3
	ldr	x0, [x29, 24]
	ldr	x1, [x29, 40]
	bl	_memcpy
L308:
	ldr	x0, [x29, 56]
	lsl	x0, x0, 3
	ldr	x1, [x29, 24]
	add	x0, x1, x0
	ldp	x29, x30, [sp], 64
LCFI300:
	ret
LFE3240:
	.align	2
	.globl __ZSt12__niter_baseIPySt6vectorIySaIyEEET_N9__gnu_cxx17__normal_iteratorIS4_T0_EE
	.weak_definition __ZSt12__niter_baseIPySt6vectorIySaIyEEET_N9__gnu_cxx17__normal_iteratorIS4_T0_EE
__ZSt12__niter_baseIPySt6vectorIySaIyEEET_N9__gnu_cxx17__normal_iteratorIS4_T0_EE:
LFB3241:
	stp	x29, x30, [sp, -32]!
LCFI301:
	mov	x29, sp
LCFI302:
	str	x0, [x29, 24]
	add	x0, x29, 24
	bl	__ZNK9__gnu_cxx17__normal_iteratorIPySt6vectorIySaIyEEE4baseEv
	ldr	x0, [x0]
	ldp	x29, x30, [sp], 32
LCFI303:
	ret
LFE3241:
	.align	2
	.globl __ZSt14__copy_move_a1ILb1EPyS0_ET1_T0_S2_S1_
	.weak_definition __ZSt14__copy_move_a1ILb1EPyS0_ET1_T0_S2_S1_
__ZSt14__copy_move_a1ILb1EPyS0_ET1_T0_S2_S1_:
LFB3242:
	stp	x29, x30, [sp, -48]!
LCFI304:
	mov	x29, sp
LCFI305:
	str	x0, [x29, 40]
	str	x1, [x29, 32]
	str	x2, [x29, 24]
	ldr	x2, [x29, 24]
	ldr	x1, [x29, 32]
	ldr	x0, [x29, 40]
	bl	__ZSt14__copy_move_a2ILb1EPyS0_ET1_T0_S2_S1_
	ldp	x29, x30, [sp], 48
LCFI306:
	ret
LFE3242:
	.align	2
	.globl __ZSt12__niter_wrapIN9__gnu_cxx17__normal_iteratorIPySt6vectorIySaIyEEEES2_ET_S7_T0_
	.weak_definition __ZSt12__niter_wrapIN9__gnu_cxx17__normal_iteratorIPySt6vectorIySaIyEEEES2_ET_S7_T0_
__ZSt12__niter_wrapIN9__gnu_cxx17__normal_iteratorIPySt6vectorIySaIyEEEES2_ET_S7_T0_:
LFB3243:
	stp	x29, x30, [sp, -48]!
LCFI307:
	mov	x29, sp
LCFI308:
	str	x19, [sp, 16]
LCFI309:
	str	x0, [x29, 40]
	str	x1, [x29, 32]
	ldr	x0, [x29, 32]
	bl	__ZSt12__niter_baseIPyET_S1_
	mov	x19, x0
	ldr	x0, [x29, 40]
	bl	__ZSt12__niter_baseIPySt6vectorIySaIyEEET_N9__gnu_cxx17__normal_iteratorIS4_T0_EE
	sub	x0, x19, x0
	asr	x0, x0, 3
	mov	x1, x0
	add	x0, x29, 40
	bl	__ZNK9__gnu_cxx17__normal_iteratorIPySt6vectorIySaIyEEEplEl
	ldr	x19, [sp, 16]
	ldp	x29, x30, [sp], 48
LCFI310:
	ret
LFE3243:
	.align	2
	.globl __ZSt3minImERKT_S2_S2_
	.weak_definition __ZSt3minImERKT_S2_S2_
__ZSt3minImERKT_S2_S2_:
LFB3248:
	sub	sp, sp, #16
LCFI311:
	str	x0, [sp, 8]
	str	x1, [sp]
	ldr	x0, [sp]
	ldr	x1, [x0]
	ldr	x0, [sp, 8]
	ldr	x0, [x0]
	cmp	x1, x0
	bcs	L317
	ldr	x0, [sp]
	b	L318
L317:
	ldr	x0, [sp, 8]
L318:
	add	sp, sp, 16
LCFI312:
	ret
LFE3248:
	.align	2
	.globl __ZNSt20__uninitialized_copyILb1EE13__uninit_copyIPKyPyEET0_T_S6_S5_
	.weak_definition __ZNSt20__uninitialized_copyILb1EE13__uninit_copyIPKyPyEET0_T_S6_S5_
__ZNSt20__uninitialized_copyILb1EE13__uninit_copyIPKyPyEET0_T_S6_S5_:
LFB3249:
	stp	x29, x30, [sp, -48]!
LCFI313:
	mov	x29, sp
LCFI314:
	str	x0, [x29, 40]
	str	x1, [x29, 32]
	str	x2, [x29, 24]
	ldr	x2, [x29, 24]
	ldr	x1, [x29, 32]
	ldr	x0, [x29, 40]
	bl	__ZSt4copyIPKyPyET0_T_S4_S3_
	ldp	x29, x30, [sp], 48
LCFI315:
	ret
LFE3249:
	.align	2
	.globl __ZSt14__copy_move_a2ILb1EPyS0_ET1_T0_S2_S1_
	.weak_definition __ZSt14__copy_move_a2ILb1EPyS0_ET1_T0_S2_S1_
__ZSt14__copy_move_a2ILb1EPyS0_ET1_T0_S2_S1_:
LFB3263:
	stp	x29, x30, [sp, -48]!
LCFI316:
	mov	x29, sp
LCFI317:
	str	x0, [x29, 40]
	str	x1, [x29, 32]
	str	x2, [x29, 24]
	ldr	x2, [x29, 24]
	ldr	x1, [x29, 32]
	ldr	x0, [x29, 40]
	bl	__ZNSt11__copy_moveILb1ELb1ESt26random_access_iterator_tagE8__copy_mIyyEEPT0_PT_S6_S4_
	ldp	x29, x30, [sp], 48
LCFI318:
	ret
LFE3263:
	.align	2
	.globl __ZSt4copyIPKyPyET0_T_S4_S3_
	.weak_definition __ZSt4copyIPKyPyET0_T_S4_S3_
__ZSt4copyIPKyPyET0_T_S4_S3_:
LFB3265:
	stp	x29, x30, [sp, -64]!
LCFI319:
	mov	x29, sp
LCFI320:
	str	x19, [sp, 16]
LCFI321:
	str	x0, [x29, 56]
	str	x1, [x29, 48]
	str	x2, [x29, 40]
	ldr	x0, [x29, 56]
	bl	__ZSt12__miter_baseIPKyET_S2_
	mov	x19, x0
	ldr	x0, [x29, 48]
	bl	__ZSt12__miter_baseIPKyET_S2_
	ldr	x2, [x29, 40]
	mov	x1, x0
	mov	x0, x19
	bl	__ZSt13__copy_move_aILb0EPKyPyET1_T0_S4_S3_
	ldr	x19, [sp, 16]
	ldp	x29, x30, [sp], 64
LCFI322:
	ret
LFE3265:
	.align	2
	.globl __ZNSt11__copy_moveILb1ELb1ESt26random_access_iterator_tagE8__copy_mIyyEEPT0_PT_S6_S4_
	.weak_definition __ZNSt11__copy_moveILb1ELb1ESt26random_access_iterator_tagE8__copy_mIyyEEPT0_PT_S6_S4_
__ZNSt11__copy_moveILb1ELb1ESt26random_access_iterator_tagE8__copy_mIyyEEPT0_PT_S6_S4_:
LFB3270:
	stp	x29, x30, [sp, -64]!
LCFI323:
	mov	x29, sp
LCFI324:
	str	x0, [x29, 40]
	str	x1, [x29, 32]
	str	x2, [x29, 24]
	ldr	x1, [x29, 32]
	ldr	x0, [x29, 40]
	sub	x0, x1, x0
	asr	x0, x0, 3
	str	x0, [x29, 56]
	ldr	x0, [x29, 56]
	cmp	x0, 1
	cset	w0, gt
	and	w0, w0, 255
	and	x0, x0, 255
	cmp	x0, 0
	beq	L326
	ldr	x0, [x29, 56]
	lsl	x0, x0, 3
	mov	x2, x0
	ldr	x1, [x29, 40]
	ldr	x0, [x29, 24]
	bl	_memmove
	b	L327
L326:
	ldr	x0, [x29, 56]
	cmp	x0, 1
	bne	L327
	ldr	x1, [x29, 40]
	ldr	x0, [x29, 24]
	bl	__ZNSt11__copy_moveILb1ELb0ESt26random_access_iterator_tagE12__assign_oneIyyEEvPT_PT0_
L327:
	ldr	x0, [x29, 56]
	lsl	x0, x0, 3
	ldr	x1, [x29, 24]
	add	x0, x1, x0
	ldp	x29, x30, [sp], 64
LCFI325:
	ret
LFE3270:
	.align	2
	.globl __ZSt12__miter_baseIPKyET_S2_
	.weak_definition __ZSt12__miter_baseIPKyET_S2_
__ZSt12__miter_baseIPKyET_S2_:
LFB3271:
	sub	sp, sp, #16
LCFI326:
	str	x0, [sp, 8]
	ldr	x0, [sp, 8]
	add	sp, sp, 16
LCFI327:
	ret
LFE3271:
	.align	2
	.globl __ZSt13__copy_move_aILb0EPKyPyET1_T0_S4_S3_
	.weak_definition __ZSt13__copy_move_aILb0EPKyPyET1_T0_S4_S3_
__ZSt13__copy_move_aILb0EPKyPyET1_T0_S4_S3_:
LFB3272:
	stp	x29, x30, [sp, -64]!
LCFI328:
	mov	x29, sp
LCFI329:
	stp	x19, x20, [sp, 16]
LCFI330:
	str	x0, [x29, 56]
	str	x1, [x29, 48]
	str	x2, [x29, 40]
	ldr	x0, [x29, 56]
	bl	__ZSt12__niter_baseIPKyET_S2_
	mov	x19, x0
	ldr	x0, [x29, 48]
	bl	__ZSt12__niter_baseIPKyET_S2_
	mov	x20, x0
	ldr	x0, [x29, 40]
	bl	__ZSt12__niter_baseIPyET_S1_
	mov	x2, x0
	mov	x1, x20
	mov	x0, x19
	bl	__ZSt14__copy_move_a1ILb0EPKyPyET1_T0_S4_S3_
	mov	x1, x0
	add	x0, x29, 40
	bl	__ZSt12__niter_wrapIPyET_RKS1_S1_
	ldp	x19, x20, [sp, 16]
	ldp	x29, x30, [sp], 64
LCFI331:
	ret
LFE3272:
	.align	2
	.globl __ZNSt11__copy_moveILb1ELb0ESt26random_access_iterator_tagE12__assign_oneIyyEEvPT_PT0_
	.weak_definition __ZNSt11__copy_moveILb1ELb0ESt26random_access_iterator_tagE12__assign_oneIyyEEvPT_PT0_
__ZNSt11__copy_moveILb1ELb0ESt26random_access_iterator_tagE12__assign_oneIyyEEvPT_PT0_:
LFB3276:
	stp	x29, x30, [sp, -32]!
LCFI332:
	mov	x29, sp
LCFI333:
	str	x0, [x29, 24]
	str	x1, [x29, 16]
	ldr	x0, [x29, 16]
	bl	__ZSt4moveIRyEONSt16remove_referenceIT_E4typeEOS2_
	ldr	x1, [x0]
	ldr	x0, [x29, 24]
	str	x1, [x0]
	nop
	ldp	x29, x30, [sp], 32
LCFI334:
	ret
LFE3276:
	.align	2
	.globl __ZSt12__niter_baseIPKyET_S2_
	.weak_definition __ZSt12__niter_baseIPKyET_S2_
__ZSt12__niter_baseIPKyET_S2_:
LFB3277:
	sub	sp, sp, #16
LCFI335:
	str	x0, [sp, 8]
	ldr	x0, [sp, 8]
	add	sp, sp, 16
LCFI336:
	ret
LFE3277:
	.align	2
	.globl __ZSt14__copy_move_a1ILb0EPKyPyET1_T0_S4_S3_
	.weak_definition __ZSt14__copy_move_a1ILb0EPKyPyET1_T0_S4_S3_
__ZSt14__copy_move_a1ILb0EPKyPyET1_T0_S4_S3_:
LFB3278:
	stp	x29, x30, [sp, -48]!
LCFI337:
	mov	x29, sp
LCFI338:
	str	x0, [x29, 40]
	str	x1, [x29, 32]
	str	x2, [x29, 24]
	ldr	x2, [x29, 24]
	ldr	x1, [x29, 32]
	ldr	x0, [x29, 40]
	bl	__ZSt14__copy_move_a2ILb0EPKyPyET1_T0_S4_S3_
	ldp	x29, x30, [sp], 48
LCFI339:
	ret
LFE3278:
	.align	2
	.globl __ZSt12__niter_wrapIPyET_RKS1_S1_
	.weak_definition __ZSt12__niter_wrapIPyET_RKS1_S1_
__ZSt12__niter_wrapIPyET_RKS1_S1_:
LFB3279:
	sub	sp, sp, #16
LCFI340:
	str	x0, [sp, 8]
	str	x1, [sp]
	ldr	x0, [sp]
	add	sp, sp, 16
LCFI341:
	ret
LFE3279:
	.align	2
	.globl __ZSt14__copy_move_a2ILb0EPKyPyET1_T0_S4_S3_
	.weak_definition __ZSt14__copy_move_a2ILb0EPKyPyET1_T0_S4_S3_
__ZSt14__copy_move_a2ILb0EPKyPyET1_T0_S4_S3_:
LFB3280:
	stp	x29, x30, [sp, -48]!
LCFI342:
	mov	x29, sp
LCFI343:
	str	x0, [x29, 40]
	str	x1, [x29, 32]
	str	x2, [x29, 24]
	ldr	x2, [x29, 24]
	ldr	x1, [x29, 32]
	ldr	x0, [x29, 40]
	bl	__ZNSt11__copy_moveILb0ELb1ESt26random_access_iterator_tagE8__copy_mIKyyEEPT0_PT_S7_S5_
	ldp	x29, x30, [sp], 48
LCFI344:
	ret
LFE3280:
	.align	2
	.globl __ZNSt11__copy_moveILb0ELb1ESt26random_access_iterator_tagE8__copy_mIKyyEEPT0_PT_S7_S5_
	.weak_definition __ZNSt11__copy_moveILb0ELb1ESt26random_access_iterator_tagE8__copy_mIKyyEEPT0_PT_S7_S5_
__ZNSt11__copy_moveILb0ELb1ESt26random_access_iterator_tagE8__copy_mIKyyEEPT0_PT_S7_S5_:
LFB3281:
	stp	x29, x30, [sp, -64]!
LCFI345:
	mov	x29, sp
LCFI346:
	str	x0, [x29, 40]
	str	x1, [x29, 32]
	str	x2, [x29, 24]
	ldr	x1, [x29, 32]
	ldr	x0, [x29, 40]
	sub	x0, x1, x0
	asr	x0, x0, 3
	str	x0, [x29, 56]
	ldr	x0, [x29, 56]
	cmp	x0, 1
	cset	w0, gt
	and	w0, w0, 255
	and	x0, x0, 255
	cmp	x0, 0
	beq	L343
	ldr	x0, [x29, 56]
	lsl	x0, x0, 3
	mov	x2, x0
	ldr	x1, [x29, 40]
	ldr	x0, [x29, 24]
	bl	_memmove
	b	L344
L343:
	ldr	x0, [x29, 56]
	cmp	x0, 1
	bne	L344
	ldr	x1, [x29, 40]
	ldr	x0, [x29, 24]
	bl	__ZNSt11__copy_moveILb0ELb0ESt26random_access_iterator_tagE12__assign_oneIyKyEEvPT_PT0_
L344:
	ldr	x0, [x29, 56]
	lsl	x0, x0, 3
	ldr	x1, [x29, 24]
	add	x0, x1, x0
	ldp	x29, x30, [sp], 64
LCFI347:
	ret
LFE3281:
	.align	2
	.globl __ZNSt11__copy_moveILb0ELb0ESt26random_access_iterator_tagE12__assign_oneIyKyEEvPT_PT0_
	.weak_definition __ZNSt11__copy_moveILb0ELb0ESt26random_access_iterator_tagE12__assign_oneIyKyEEvPT_PT0_
__ZNSt11__copy_moveILb0ELb0ESt26random_access_iterator_tagE12__assign_oneIyKyEEvPT_PT0_:
LFB3282:
	sub	sp, sp, #16
LCFI348:
	str	x0, [sp, 8]
	str	x1, [sp]
	ldr	x0, [sp]
	ldr	x1, [x0]
	ldr	x0, [sp, 8]
	str	x1, [x0]
	nop
	add	sp, sp, 16
LCFI349:
	ret
LFE3282:
	.section	__TEXT,__StaticInit,regular,pure_instructions
	.align	2
__Z41__static_initialization_and_destruction_0v:
LFB3283:
	stp	x29, x30, [sp, -16]!
LCFI350:
	mov	x29, sp
LCFI351:
	adrp	x0, __ZStL8__ioinit@PAGE
	add	x0, x0, __ZStL8__ioinit@PAGEOFF;
	bl	__ZNSt8ios_base4InitC1Ev
	adrp	x0, ___dso_handle@PAGE
	add	x2, x0, ___dso_handle@PAGEOFF;
	adrp	x0, __ZStL8__ioinit@PAGE
	add	x1, x0, __ZStL8__ioinit@PAGEOFF;
	adrp	x0, __ZNSt8ios_base4InitD1Ev@GOTPAGE
	ldr	x0, [x0, __ZNSt8ios_base4InitD1Ev@GOTPAGEOFF]
	bl	___cxa_atexit
	nop
	ldp	x29, x30, [sp], 16
LCFI352:
	ret
LFE3283:
	.const
__ZNSt8__detail30__integer_to_chars_is_unsignedIjEE:
	.byte	1
__ZNSt8__detail30__integer_to_chars_is_unsignedImEE:
	.byte	1
__ZNSt8__detail30__integer_to_chars_is_unsignedIyEE:
	.byte	1
	.section	__TEXT,__StaticInit,regular,pure_instructions
	.align	2
__GLOBAL__sub_I_pi.cpp:
LFB3284:
	stp	x29, x30, [sp, -16]!
LCFI353:
	mov	x29, sp
LCFI354:
	bl	__Z41__static_initialization_and_destruction_0v
	ldp	x29, x30, [sp], 16
LCFI355:
	ret
LFE3284:
	.section __TEXT,__eh_frame,coalesced,no_toc+strip_static_syms+live_support
EH_frame1:
	.set L$set$0,LECIE1-LSCIE1
	.long L$set$0
LSCIE1:
	.long	0
	.byte	0x3
	.ascii "zPLR\0"
	.uleb128 0x1
	.sleb128 -8
	.uleb128 0x1e
	.uleb128 0x7
	.byte	0x9b
L_got_pcr0:
	.long	___gxx_personality_v0@GOT-L_got_pcr0
	.byte	0x10
	.byte	0x10
	.byte	0xc
	.uleb128 0x1f
	.uleb128 0
	.align	3
LECIE1:
LSFDE1:
	.set L$set$1,LEFDE1-LASFDE1
	.long L$set$1
LASFDE1:
	.long	LASFDE1-EH_frame1
	.quad	LFB87-.
	.set L$set$2,LFE87-LFB87
	.quad L$set$2
	.uleb128 0x8
	.quad	0
	.byte	0x4
	.set L$set$3,LCFI0-LFB87
	.long L$set$3
	.byte	0xe
	.uleb128 0x10
	.byte	0x4
	.set L$set$4,LCFI1-LCFI0
	.long L$set$4
	.byte	0xe
	.uleb128 0
	.align	3
LEFDE1:
LSFDE3:
	.set L$set$5,LEFDE3-LASFDE3
	.long L$set$5
LASFDE3:
	.long	LASFDE3-EH_frame1
	.quad	LFB162-.
	.set L$set$6,LFE162-LFB162
	.quad L$set$6
	.uleb128 0x8
	.quad	0
	.byte	0x4
	.set L$set$7,LCFI2-LFB162
	.long L$set$7
	.byte	0xe
	.uleb128 0x20
	.byte	0x9d
	.uleb128 0x4
	.byte	0x9e
	.uleb128 0x3
	.byte	0x4
	.set L$set$8,LCFI3-LCFI2
	.long L$set$8
	.byte	0xd
	.uleb128 0x1d
	.byte	0x4
	.set L$set$9,LCFI4-LCFI3
	.long L$set$9
	.byte	0xde
	.byte	0xdd
	.byte	0xc
	.uleb128 0x1f
	.uleb128 0
	.align	3
LEFDE3:
LSFDE5:
	.set L$set$10,LEFDE5-LASFDE5
	.long L$set$10
LASFDE5:
	.long	LASFDE5-EH_frame1
	.quad	LFB1218-.
	.set L$set$11,LFE1218-LFB1218
	.quad L$set$11
	.uleb128 0x8
	.quad	0
	.byte	0x4
	.set L$set$12,LCFI5-LFB1218
	.long L$set$12
	.byte	0xe
	.uleb128 0x30
	.byte	0x9d
	.uleb128 0x6
	.byte	0x9e
	.uleb128 0x5
	.byte	0x4
	.set L$set$13,LCFI6-LCFI5
	.long L$set$13
	.byte	0xd
	.uleb128 0x1d
	.byte	0x4
	.set L$set$14,LCFI7-LCFI6
	.long L$set$14
	.byte	0xde
	.byte	0xdd
	.byte	0xc
	.uleb128 0x1f
	.uleb128 0
	.align	3
LEFDE5:
LSFDE7:
	.set L$set$15,LEFDE7-LASFDE7
	.long L$set$15
LASFDE7:
	.long	LASFDE7-EH_frame1
	.quad	LFB2501-.
	.set L$set$16,LFE2501-LFB2501
	.quad L$set$16
	.uleb128 0x8
	.quad	0
	.byte	0x4
	.set L$set$17,LCFI8-LFB2501
	.long L$set$17
	.byte	0xe
	.uleb128 0x10
	.byte	0x4
	.set L$set$18,LCFI9-LCFI8
	.long L$set$18
	.byte	0xe
	.uleb128 0
	.align	3
LEFDE7:
LSFDE9:
	.set L$set$19,LEFDE9-LASFDE9
	.long L$set$19
LASFDE9:
	.long	LASFDE9-EH_frame1
	.quad	LFB2502-.
	.set L$set$20,LFE2502-LFB2502
	.quad L$set$20
	.uleb128 0x8
	.quad	0
	.byte	0x4
	.set L$set$21,LCFI10-LFB2502
	.long L$set$21
	.byte	0xe
	.uleb128 0x10
	.byte	0x4
	.set L$set$22,LCFI11-LCFI10
	.long L$set$22
	.byte	0xe
	.uleb128 0
	.align	3
LEFDE9:
LSFDE11:
	.set L$set$23,LEFDE11-LASFDE11
	.long L$set$23
LASFDE11:
	.long	LASFDE11-EH_frame1
	.quad	LFB2504-.
	.set L$set$24,LFE2504-LFB2504
	.quad L$set$24
	.uleb128 0x8
	.quad	0
	.byte	0x4
	.set L$set$25,LCFI12-LFB2504
	.long L$set$25
	.byte	0xe
	.uleb128 0xb0
	.byte	0x9d
	.uleb128 0x16
	.byte	0x9e
	.uleb128 0x15
	.byte	0x4
	.set L$set$26,LCFI13-LCFI12
	.long L$set$26
	.byte	0xd
	.uleb128 0x1d
	.byte	0x4
	.set L$set$27,LCFI14-LCFI13
	.long L$set$27
	.byte	0x93
	.uleb128 0x14
	.byte	0x4
	.set L$set$28,LCFI15-LCFI14
	.long L$set$28
	.byte	0xde
	.byte	0xdd
	.byte	0xd3
	.byte	0xc
	.uleb128 0x1f
	.uleb128 0
	.align	3
LEFDE11:
LSFDE13:
	.set L$set$29,LEFDE13-LASFDE13
	.long L$set$29
LASFDE13:
	.long	LASFDE13-EH_frame1
	.quad	LFB2509-.
	.set L$set$30,LFE2509-LFB2509
	.quad L$set$30
	.uleb128 0x8
	.quad	0
	.byte	0x4
	.set L$set$31,LCFI16-LFB2509
	.long L$set$31
	.byte	0xe
	.uleb128 0x40
	.byte	0x9d
	.uleb128 0x8
	.byte	0x9e
	.uleb128 0x7
	.byte	0x4
	.set L$set$32,LCFI17-LCFI16
	.long L$set$32
	.byte	0xd
	.uleb128 0x1d
	.byte	0x4
	.set L$set$33,LCFI18-LCFI17
	.long L$set$33
	.byte	0x93
	.uleb128 0x6
	.byte	0x4
	.set L$set$34,LCFI19-LCFI18
	.long L$set$34
	.byte	0xde
	.byte	0xdd
	.byte	0xd3
	.byte	0xc
	.uleb128 0x1f
	.uleb128 0
	.align	3
LEFDE13:
LSFDE15:
	.set L$set$35,LEFDE15-LASFDE15
	.long L$set$35
LASFDE15:
	.long	LASFDE15-EH_frame1
	.quad	LFB2511-.
	.set L$set$36,LFE2511-LFB2511
	.quad L$set$36
	.uleb128 0x8
	.quad	0
	.byte	0x4
	.set L$set$37,LCFI20-LFB2511
	.long L$set$37
	.byte	0xe
	.uleb128 0x20
	.byte	0x9d
	.uleb128 0x4
	.byte	0x9e
	.uleb128 0x3
	.byte	0x4
	.set L$set$38,LCFI21-LCFI20
	.long L$set$38
	.byte	0xd
	.uleb128 0x1d
	.byte	0x4
	.set L$set$39,LCFI22-LCFI21
	.long L$set$39
	.byte	0xde
	.byte	0xdd
	.byte	0xc
	.uleb128 0x1f
	.uleb128 0
	.align	3
LEFDE15:
LSFDE17:
	.set L$set$40,LEFDE17-LASFDE17
	.long L$set$40
LASFDE17:
	.long	LASFDE17-EH_frame1
	.quad	LFB2512-.
	.set L$set$41,LFE2512-LFB2512
	.quad L$set$41
	.uleb128 0x8
	.quad	0
	.byte	0x4
	.set L$set$42,LCFI23-LFB2512
	.long L$set$42
	.byte	0xe
	.uleb128 0x10
	.byte	0x4
	.set L$set$43,LCFI24-LCFI23
	.long L$set$43
	.byte	0xe
	.uleb128 0
	.align	3
LEFDE17:
LSFDE19:
	.set L$set$44,LEFDE19-LASFDE19
	.long L$set$44
LASFDE19:
	.long	LASFDE19-EH_frame1
	.quad	LFB2513-.
	.set L$set$45,LFE2513-LFB2513
	.quad L$set$45
	.uleb128 0x8
	.quad	0
	.byte	0x4
	.set L$set$46,LCFI25-LFB2513
	.long L$set$46
	.byte	0xe
	.uleb128 0x20
	.byte	0x9d
	.uleb128 0x4
	.byte	0x9e
	.uleb128 0x3
	.byte	0x4
	.set L$set$47,LCFI26-LCFI25
	.long L$set$47
	.byte	0xd
	.uleb128 0x1d
	.byte	0x4
	.set L$set$48,LCFI27-LCFI26
	.long L$set$48
	.byte	0xde
	.byte	0xdd
	.byte	0xc
	.uleb128 0x1f
	.uleb128 0
	.align	3
LEFDE19:
LSFDE21:
	.set L$set$49,LEFDE21-LASFDE21
	.long L$set$49
LASFDE21:
	.long	LASFDE21-EH_frame1
	.quad	LFB2514-.
	.set L$set$50,LFE2514-LFB2514
	.quad L$set$50
	.uleb128 0x8
	.quad	0
	.byte	0x4
	.set L$set$51,LCFI28-LFB2514
	.long L$set$51
	.byte	0xe
	.uleb128 0x10
	.byte	0x4
	.set L$set$52,LCFI29-LCFI28
	.long L$set$52
	.byte	0xe
	.uleb128 0
	.align	3
LEFDE21:
LSFDE23:
	.set L$set$53,LEFDE23-LASFDE23
	.long L$set$53
LASFDE23:
	.long	LASFDE23-EH_frame1
	.quad	LFB2515-.
	.set L$set$54,LFE2515-LFB2515
	.quad L$set$54
	.uleb128 0x8
	.quad	0
	.byte	0x4
	.set L$set$55,LCFI30-LFB2515
	.long L$set$55
	.byte	0xe
	.uleb128 0x20
	.byte	0x9d
	.uleb128 0x4
	.byte	0x9e
	.uleb128 0x3
	.byte	0x4
	.set L$set$56,LCFI31-LCFI30
	.long L$set$56
	.byte	0xd
	.uleb128 0x1d
	.byte	0x4
	.set L$set$57,LCFI32-LCFI31
	.long L$set$57
	.byte	0xde
	.byte	0xdd
	.byte	0xc
	.uleb128 0x1f
	.uleb128 0
	.align	3
LEFDE23:
LSFDE25:
	.set L$set$58,LEFDE25-LASFDE25
	.long L$set$58
LASFDE25:
	.long	LASFDE25-EH_frame1
	.quad	LFB2516-.
	.set L$set$59,LFE2516-LFB2516
	.quad L$set$59
	.uleb128 0x8
	.quad	0
	.byte	0x4
	.set L$set$60,LCFI33-LFB2516
	.long L$set$60
	.byte	0xe
	.uleb128 0x20
	.byte	0x9d
	.uleb128 0x4
	.byte	0x9e
	.uleb128 0x3
	.byte	0x4
	.set L$set$61,LCFI34-LCFI33
	.long L$set$61
	.byte	0xd
	.uleb128 0x1d
	.byte	0x4
	.set L$set$62,LCFI35-LCFI34
	.long L$set$62
	.byte	0xde
	.byte	0xdd
	.byte	0xc
	.uleb128 0x1f
	.uleb128 0
	.align	3
LEFDE25:
LSFDE27:
	.set L$set$63,LEFDE27-LASFDE27
	.long L$set$63
LASFDE27:
	.long	LASFDE27-EH_frame1
	.quad	LFB2510-.
	.set L$set$64,LFE2510-LFB2510
	.quad L$set$64
	.uleb128 0x8
	.quad	0
	.byte	0x4
	.set L$set$65,LCFI36-LFB2510
	.long L$set$65
	.byte	0xe
	.uleb128 0x80
	.byte	0x9d
	.uleb128 0x10
	.byte	0x9e
	.uleb128 0xf
	.byte	0x4
	.set L$set$66,LCFI37-LCFI36
	.long L$set$66
	.byte	0xd
	.uleb128 0x1d
	.byte	0x4
	.set L$set$67,LCFI38-LCFI37
	.long L$set$67
	.byte	0x93
	.uleb128 0xe
	.byte	0x4
	.set L$set$68,LCFI39-LCFI38
	.long L$set$68
	.byte	0xde
	.byte	0xdd
	.byte	0xd3
	.byte	0xc
	.uleb128 0x1f
	.uleb128 0
	.align	3
LEFDE27:
LSFDE29:
	.set L$set$69,LEFDE29-LASFDE29
	.long L$set$69
LASFDE29:
	.long	LASFDE29-EH_frame1
	.quad	LFB2517-.
	.set L$set$70,LFE2517-LFB2517
	.quad L$set$70
	.uleb128 0x8
	.quad	0
	.byte	0x4
	.set L$set$71,LCFI40-LFB2517
	.long L$set$71
	.byte	0xe
	.uleb128 0x60
	.byte	0x9d
	.uleb128 0xc
	.byte	0x9e
	.uleb128 0xb
	.byte	0x4
	.set L$set$72,LCFI41-LCFI40
	.long L$set$72
	.byte	0xd
	.uleb128 0x1d
	.byte	0x4
	.set L$set$73,LCFI42-LCFI41
	.long L$set$73
	.byte	0x93
	.uleb128 0xa
	.byte	0x4
	.set L$set$74,LCFI43-LCFI42
	.long L$set$74
	.byte	0xde
	.byte	0xdd
	.byte	0xd3
	.byte	0xc
	.uleb128 0x1f
	.uleb128 0
	.align	3
LEFDE29:
LSFDE31:
	.set L$set$75,LEFDE31-LASFDE31
	.long L$set$75
LASFDE31:
	.long	LASFDE31-EH_frame1
	.quad	LFB2518-.
	.set L$set$76,LFE2518-LFB2518
	.quad L$set$76
	.uleb128 0x8
	.quad	0
	.byte	0x4
	.set L$set$77,LCFI44-LFB2518
	.long L$set$77
	.byte	0xe
	.uleb128 0x40
	.byte	0x9d
	.uleb128 0x8
	.byte	0x9e
	.uleb128 0x7
	.byte	0x4
	.set L$set$78,LCFI45-LCFI44
	.long L$set$78
	.byte	0xd
	.uleb128 0x1d
	.byte	0x4
	.set L$set$79,LCFI46-LCFI45
	.long L$set$79
	.byte	0x93
	.uleb128 0x6
	.byte	0x4
	.set L$set$80,LCFI47-LCFI46
	.long L$set$80
	.byte	0xde
	.byte	0xdd
	.byte	0xd3
	.byte	0xc
	.uleb128 0x1f
	.uleb128 0
	.align	3
LEFDE31:
LSFDE33:
	.set L$set$81,LEFDE33-LASFDE33
	.long L$set$81
LASFDE33:
	.long	LASFDE33-EH_frame1
	.quad	LFB2519-.
	.set L$set$82,LFE2519-LFB2519
	.quad L$set$82
	.uleb128 0x8
	.quad	0
	.byte	0x4
	.set L$set$83,LCFI48-LFB2519
	.long L$set$83
	.byte	0xe
	.uleb128 0x60
	.byte	0x9d
	.uleb128 0xc
	.byte	0x9e
	.uleb128 0xb
	.byte	0x4
	.set L$set$84,LCFI49-LCFI48
	.long L$set$84
	.byte	0xd
	.uleb128 0x1d
	.byte	0x4
	.set L$set$85,LCFI50-LCFI49
	.long L$set$85
	.byte	0x93
	.uleb128 0xa
	.byte	0x4
	.set L$set$86,LCFI51-LCFI50
	.long L$set$86
	.byte	0xde
	.byte	0xdd
	.byte	0xd3
	.byte	0xc
	.uleb128 0x1f
	.uleb128 0
	.align	3
LEFDE33:
LSFDE35:
	.set L$set$87,LEFDE35-LASFDE35
	.long L$set$87
LASFDE35:
	.long	LASFDE35-EH_frame1
	.quad	LFB2520-.
	.set L$set$88,LFE2520-LFB2520
	.quad L$set$88
	.uleb128 0x8
	.quad	0
	.byte	0x4
	.set L$set$89,LCFI52-LFB2520
	.long L$set$89
	.byte	0xe
	.uleb128 0x60
	.byte	0x9d
	.uleb128 0xc
	.byte	0x9e
	.uleb128 0xb
	.byte	0x4
	.set L$set$90,LCFI53-LCFI52
	.long L$set$90
	.byte	0xd
	.uleb128 0x1d
	.byte	0x4
	.set L$set$91,LCFI54-LCFI53
	.long L$set$91
	.byte	0xde
	.byte	0xdd
	.byte	0xc
	.uleb128 0x1f
	.uleb128 0
	.align	3
LEFDE35:
LSFDE37:
	.set L$set$92,LEFDE37-LASFDE37
	.long L$set$92
LASFDE37:
	.long	LASFDE37-EH_frame1
	.quad	LFB2521-.
	.set L$set$93,LFE2521-LFB2521
	.quad L$set$93
	.uleb128 0x8
	.quad	LLSDA2521-.
	.byte	0x4
	.set L$set$94,LCFI55-LFB2521
	.long L$set$94
	.byte	0xe
	.uleb128 0x390
	.byte	0x4
	.set L$set$95,LCFI56-LCFI55
	.long L$set$95
	.byte	0x9d
	.uleb128 0x72
	.byte	0x9e
	.uleb128 0x71
	.byte	0x4
	.set L$set$96,LCFI57-LCFI56
	.long L$set$96
	.byte	0xd
	.uleb128 0x1d
	.byte	0x4
	.set L$set$97,LCFI58-LCFI57
	.long L$set$97
	.byte	0x93
	.uleb128 0x70
	.byte	0x94
	.uleb128 0x6f
	.byte	0x95
	.uleb128 0x6e
	.byte	0x96
	.uleb128 0x6d
	.byte	0x97
	.uleb128 0x6c
	.byte	0x98
	.uleb128 0x6b
	.byte	0x99
	.uleb128 0x6a
	.byte	0x9a
	.uleb128 0x69
	.byte	0x9b
	.uleb128 0x68
	.byte	0x4
	.set L$set$98,LCFI59-LCFI58
	.long L$set$98
	.byte	0xdb
	.byte	0xd9
	.byte	0xda
	.byte	0xd7
	.byte	0xd8
	.byte	0xd5
	.byte	0xd6
	.byte	0xd3
	.byte	0xd4
	.byte	0xdd
	.byte	0xde
	.byte	0xc
	.uleb128 0x1f
	.uleb128 0
	.align	3
LEFDE37:
LSFDE39:
	.set L$set$99,LEFDE39-LASFDE39
	.long L$set$99
LASFDE39:
	.long	LASFDE39-EH_frame1
	.quad	LFB2522-.
	.set L$set$100,LFE2522-LFB2522
	.quad L$set$100
	.uleb128 0x8
	.quad	0
	.byte	0x4
	.set L$set$101,LCFI60-LFB2522
	.long L$set$101
	.byte	0xe
	.uleb128 0x30
	.byte	0x9d
	.uleb128 0x6
	.byte	0x9e
	.uleb128 0x5
	.byte	0x4
	.set L$set$102,LCFI61-LCFI60
	.long L$set$102
	.byte	0xd
	.uleb128 0x1d
	.byte	0x4
	.set L$set$103,LCFI62-LCFI61
	.long L$set$103
	.byte	0xde
	.byte	0xdd
	.byte	0xc
	.uleb128 0x1f
	.uleb128 0
	.align	3
LEFDE39:
LSFDE41:
	.set L$set$104,LEFDE41-LASFDE41
	.long L$set$104
LASFDE41:
	.long	LASFDE41-EH_frame1
	.quad	LFB2585-.
	.set L$set$105,LFE2585-LFB2585
	.quad L$set$105
	.uleb128 0x8
	.quad	0
	.byte	0x4
	.set L$set$106,LCFI63-LFB2585
	.long L$set$106
	.byte	0xe
	.uleb128 0x20
	.byte	0x9d
	.uleb128 0x4
	.byte	0x9e
	.uleb128 0x3
	.byte	0x4
	.set L$set$107,LCFI64-LCFI63
	.long L$set$107
	.byte	0xd
	.uleb128 0x1d
	.byte	0x4
	.set L$set$108,LCFI65-LCFI64
	.long L$set$108
	.byte	0xde
	.byte	0xdd
	.byte	0xc
	.uleb128 0x1f
	.uleb128 0
	.align	3
LEFDE41:
LSFDE43:
	.set L$set$109,LEFDE43-LASFDE43
	.long L$set$109
LASFDE43:
	.long	LASFDE43-EH_frame1
	.quad	LFB2588-.
	.set L$set$110,LFE2588-LFB2588
	.quad L$set$110
	.uleb128 0x8
	.quad	LLSDA2588-.
	.byte	0x4
	.set L$set$111,LCFI66-LFB2588
	.long L$set$111
	.byte	0xe
	.uleb128 0x30
	.byte	0x9d
	.uleb128 0x6
	.byte	0x9e
	.uleb128 0x5
	.byte	0x4
	.set L$set$112,LCFI67-LCFI66
	.long L$set$112
	.byte	0xd
	.uleb128 0x1d
	.byte	0x4
	.set L$set$113,LCFI68-LCFI67
	.long L$set$113
	.byte	0x93
	.uleb128 0x4
	.byte	0x4
	.set L$set$114,LCFI69-LCFI68
	.long L$set$114
	.byte	0xde
	.byte	0xdd
	.byte	0xd3
	.byte	0xc
	.uleb128 0x1f
	.uleb128 0
	.align	3
LEFDE43:
LSFDE45:
	.set L$set$115,LEFDE45-LASFDE45
	.long L$set$115
LASFDE45:
	.long	LASFDE45-EH_frame1
	.quad	LFB2589-.
	.set L$set$116,LFE2589-LFB2589
	.quad L$set$116
	.uleb128 0x8
	.quad	0
	.byte	0x4
	.set L$set$117,LCFI70-LFB2589
	.long L$set$117
	.byte	0xe
	.uleb128 0x10
	.byte	0x4
	.set L$set$118,LCFI71-LCFI70
	.long L$set$118
	.byte	0xe
	.uleb128 0
	.align	3
LEFDE45:
LSFDE47:
	.set L$set$119,LEFDE47-LASFDE47
	.long L$set$119
LASFDE47:
	.long	LASFDE47-EH_frame1
	.quad	LFB2582-.
	.set L$set$120,LFE2582-LFB2582
	.quad L$set$120
	.uleb128 0x8
	.quad	LLSDA2582-.
	.byte	0x4
	.set L$set$121,LCFI72-LFB2582
	.long L$set$121
	.byte	0xe
	.uleb128 0x80
	.byte	0x9d
	.uleb128 0x10
	.byte	0x9e
	.uleb128 0xf
	.byte	0x4
	.set L$set$122,LCFI73-LCFI72
	.long L$set$122
	.byte	0xd
	.uleb128 0x1d
	.byte	0x4
	.set L$set$123,LCFI74-LCFI73
	.long L$set$123
	.byte	0x93
	.uleb128 0xe
	.byte	0x4
	.set L$set$124,LCFI75-LCFI74
	.long L$set$124
	.byte	0xde
	.byte	0xdd
	.byte	0xd3
	.byte	0xc
	.uleb128 0x1f
	.uleb128 0
	.align	3
LEFDE47:
LSFDE49:
	.set L$set$125,LEFDE49-LASFDE49
	.long L$set$125
LASFDE49:
	.long	LASFDE49-EH_frame1
	.quad	LFB2621-.
	.set L$set$126,LFE2621-LFB2621
	.quad L$set$126
	.uleb128 0x8
	.quad	0
	.byte	0x4
	.set L$set$127,LCFI76-LFB2621
	.long L$set$127
	.byte	0xe
	.uleb128 0x30
	.byte	0x9d
	.uleb128 0x6
	.byte	0x9e
	.uleb128 0x5
	.byte	0x4
	.set L$set$128,LCFI77-LCFI76
	.long L$set$128
	.byte	0xd
	.uleb128 0x1d
	.byte	0x4
	.set L$set$129,LCFI78-LCFI77
	.long L$set$129
	.byte	0xde
	.byte	0xdd
	.byte	0xc
	.uleb128 0x1f
	.uleb128 0
	.align	3
LEFDE49:
LSFDE51:
	.set L$set$130,LEFDE51-LASFDE51
	.long L$set$130
LASFDE51:
	.long	LASFDE51-EH_frame1
	.quad	LFB2797-.
	.set L$set$131,LFE2797-LFB2797
	.quad L$set$131
	.uleb128 0x8
	.quad	0
	.byte	0x4
	.set L$set$132,LCFI79-LFB2797
	.long L$set$132
	.byte	0xe
	.uleb128 0x20
	.byte	0x4
	.set L$set$133,LCFI80-LCFI79
	.long L$set$133
	.byte	0xe
	.uleb128 0
	.align	3
LEFDE51:
LSFDE53:
	.set L$set$134,LEFDE53-LASFDE53
	.long L$set$134
LASFDE53:
	.long	LASFDE53-EH_frame1
	.quad	LFB2798-.
	.set L$set$135,LFE2798-LFB2798
	.quad L$set$135
	.uleb128 0x8
	.quad	0
	.byte	0x4
	.set L$set$136,LCFI81-LFB2798
	.long L$set$136
	.byte	0xe
	.uleb128 0x10
	.byte	0x4
	.set L$set$137,LCFI82-LCFI81
	.long L$set$137
	.byte	0xe
	.uleb128 0
	.align	3
LEFDE53:
LSFDE55:
	.set L$set$138,LEFDE55-LASFDE55
	.long L$set$138
LASFDE55:
	.long	LASFDE55-EH_frame1
	.quad	LFB2799-.
	.set L$set$139,LFE2799-LFB2799
	.quad L$set$139
	.uleb128 0x8
	.quad	0
	.byte	0x4
	.set L$set$140,LCFI83-LFB2799
	.long L$set$140
	.byte	0xe
	.uleb128 0x10
	.byte	0x4
	.set L$set$141,LCFI84-LCFI83
	.long L$set$141
	.byte	0xe
	.uleb128 0
	.align	3
LEFDE55:
LSFDE57:
	.set L$set$142,LEFDE57-LASFDE57
	.long L$set$142
LASFDE57:
	.long	LASFDE57-EH_frame1
	.quad	LFB2800-.
	.set L$set$143,LFE2800-LFB2800
	.quad L$set$143
	.uleb128 0x8
	.quad	0
	.byte	0x4
	.set L$set$144,LCFI85-LFB2800
	.long L$set$144
	.byte	0xe
	.uleb128 0x20
	.byte	0x9d
	.uleb128 0x4
	.byte	0x9e
	.uleb128 0x3
	.byte	0x4
	.set L$set$145,LCFI86-LCFI85
	.long L$set$145
	.byte	0xd
	.uleb128 0x1d
	.byte	0x4
	.set L$set$146,LCFI87-LCFI86
	.long L$set$146
	.byte	0xde
	.byte	0xdd
	.byte	0xc
	.uleb128 0x1f
	.uleb128 0
	.align	3
LEFDE57:
LSFDE59:
	.set L$set$147,LEFDE59-LASFDE59
	.long L$set$147
LASFDE59:
	.long	LASFDE59-EH_frame1
	.quad	LFB2801-.
	.set L$set$148,LFE2801-LFB2801
	.quad L$set$148
	.uleb128 0x8
	.quad	0
	.byte	0x4
	.set L$set$149,LCFI88-LFB2801
	.long L$set$149
	.byte	0xe
	.uleb128 0x20
	.byte	0x9d
	.uleb128 0x4
	.byte	0x9e
	.uleb128 0x3
	.byte	0x4
	.set L$set$150,LCFI89-LCFI88
	.long L$set$150
	.byte	0xd
	.uleb128 0x1d
	.byte	0x4
	.set L$set$151,LCFI90-LCFI89
	.long L$set$151
	.byte	0xde
	.byte	0xdd
	.byte	0xc
	.uleb128 0x1f
	.uleb128 0
	.align	3
LEFDE59:
LSFDE61:
	.set L$set$152,LEFDE61-LASFDE61
	.long L$set$152
LASFDE61:
	.long	LASFDE61-EH_frame1
	.quad	LFB2802-.
	.set L$set$153,LFE2802-LFB2802
	.quad L$set$153
	.uleb128 0x8
	.quad	0
	.byte	0x4
	.set L$set$154,LCFI91-LFB2802
	.long L$set$154
	.byte	0xe
	.uleb128 0x10
	.byte	0x4
	.set L$set$155,LCFI92-LCFI91
	.long L$set$155
	.byte	0xe
	.uleb128 0
	.align	3
LEFDE61:
LSFDE63:
	.set L$set$156,LEFDE63-LASFDE63
	.long L$set$156
LASFDE63:
	.long	LASFDE63-EH_frame1
	.quad	LFB2803-.
	.set L$set$157,LFE2803-LFB2803
	.quad L$set$157
	.uleb128 0x8
	.quad	0
	.byte	0x4
	.set L$set$158,LCFI93-LFB2803
	.long L$set$158
	.byte	0xe
	.uleb128 0x60
	.byte	0x9d
	.uleb128 0xc
	.byte	0x9e
	.uleb128 0xb
	.byte	0x4
	.set L$set$159,LCFI94-LCFI93
	.long L$set$159
	.byte	0xd
	.uleb128 0x1d
	.byte	0x4
	.set L$set$160,LCFI95-LCFI94
	.long L$set$160
	.byte	0x93
	.uleb128 0xa
	.byte	0x4
	.set L$set$161,LCFI96-LCFI95
	.long L$set$161
	.byte	0xde
	.byte	0xdd
	.byte	0xd3
	.byte	0xc
	.uleb128 0x1f
	.uleb128 0
	.align	3
LEFDE63:
LSFDE65:
	.set L$set$162,LEFDE65-LASFDE65
	.long L$set$162
LASFDE65:
	.long	LASFDE65-EH_frame1
	.quad	LFB2804-.
	.set L$set$163,LFE2804-LFB2804
	.quad L$set$163
	.uleb128 0x8
	.quad	0
	.byte	0x4
	.set L$set$164,LCFI97-LFB2804
	.long L$set$164
	.byte	0xe
	.uleb128 0x30
	.byte	0x9d
	.uleb128 0x6
	.byte	0x9e
	.uleb128 0x5
	.byte	0x4
	.set L$set$165,LCFI98-LCFI97
	.long L$set$165
	.byte	0xd
	.uleb128 0x1d
	.byte	0x4
	.set L$set$166,LCFI99-LCFI98
	.long L$set$166
	.byte	0xde
	.byte	0xdd
	.byte	0xc
	.uleb128 0x1f
	.uleb128 0
	.align	3
LEFDE65:
LSFDE67:
	.set L$set$167,LEFDE67-LASFDE67
	.long L$set$167
LASFDE67:
	.long	LASFDE67-EH_frame1
	.quad	LFB2805-.
	.set L$set$168,LFE2805-LFB2805
	.quad L$set$168
	.uleb128 0x8
	.quad	0
	.byte	0x4
	.set L$set$169,LCFI100-LFB2805
	.long L$set$169
	.byte	0xe
	.uleb128 0x30
	.byte	0x4
	.set L$set$170,LCFI101-LCFI100
	.long L$set$170
	.byte	0xe
	.uleb128 0
	.align	3
LEFDE67:
LSFDE69:
	.set L$set$171,LEFDE69-LASFDE69
	.long L$set$171
LASFDE69:
	.long	LASFDE69-EH_frame1
	.quad	LFB2806-.
	.set L$set$172,LFE2806-LFB2806
	.quad L$set$172
	.uleb128 0x8
	.quad	0
	.byte	0x4
	.set L$set$173,LCFI102-LFB2806
	.long L$set$173
	.byte	0xe
	.uleb128 0x30
	.byte	0x9d
	.uleb128 0x6
	.byte	0x9e
	.uleb128 0x5
	.byte	0x4
	.set L$set$174,LCFI103-LCFI102
	.long L$set$174
	.byte	0xd
	.uleb128 0x1d
	.byte	0x4
	.set L$set$175,LCFI104-LCFI103
	.long L$set$175
	.byte	0xde
	.byte	0xdd
	.byte	0xc
	.uleb128 0x1f
	.uleb128 0
	.align	3
LEFDE69:
LSFDE71:
	.set L$set$176,LEFDE71-LASFDE71
	.long L$set$176
LASFDE71:
	.long	LASFDE71-EH_frame1
	.quad	LFB2809-.
	.set L$set$177,LFE2809-LFB2809
	.quad L$set$177
	.uleb128 0x8
	.quad	0
	.byte	0x4
	.set L$set$178,LCFI105-LFB2809
	.long L$set$178
	.byte	0xe
	.uleb128 0x20
	.byte	0x9d
	.uleb128 0x4
	.byte	0x9e
	.uleb128 0x3
	.byte	0x4
	.set L$set$179,LCFI106-LCFI105
	.long L$set$179
	.byte	0xd
	.uleb128 0x1d
	.byte	0x4
	.set L$set$180,LCFI107-LCFI106
	.long L$set$180
	.byte	0xde
	.byte	0xdd
	.byte	0xc
	.uleb128 0x1f
	.uleb128 0
	.align	3
LEFDE71:
LSFDE73:
	.set L$set$181,LEFDE73-LASFDE73
	.long L$set$181
LASFDE73:
	.long	LASFDE73-EH_frame1
	.quad	LFB2810-.
	.set L$set$182,LFE2810-LFB2810
	.quad L$set$182
	.uleb128 0x8
	.quad	0
	.byte	0x4
	.set L$set$183,LCFI108-LFB2810
	.long L$set$183
	.byte	0xe
	.uleb128 0x30
	.byte	0x9d
	.uleb128 0x6
	.byte	0x9e
	.uleb128 0x5
	.byte	0x4
	.set L$set$184,LCFI109-LCFI108
	.long L$set$184
	.byte	0xd
	.uleb128 0x1d
	.byte	0x4
	.set L$set$185,LCFI110-LCFI109
	.long L$set$185
	.byte	0xde
	.byte	0xdd
	.byte	0xc
	.uleb128 0x1f
	.uleb128 0
	.align	3
LEFDE73:
LSFDE75:
	.set L$set$186,LEFDE75-LASFDE75
	.long L$set$186
LASFDE75:
	.long	LASFDE75-EH_frame1
	.quad	LFB2813-.
	.set L$set$187,LFE2813-LFB2813
	.quad L$set$187
	.uleb128 0x8
	.quad	LLSDA2813-.
	.byte	0x4
	.set L$set$188,LCFI111-LFB2813
	.long L$set$188
	.byte	0xe
	.uleb128 0x50
	.byte	0x9d
	.uleb128 0xa
	.byte	0x9e
	.uleb128 0x9
	.byte	0x4
	.set L$set$189,LCFI112-LCFI111
	.long L$set$189
	.byte	0xd
	.uleb128 0x1d
	.byte	0x4
	.set L$set$190,LCFI113-LCFI112
	.long L$set$190
	.byte	0x93
	.uleb128 0x8
	.byte	0x94
	.uleb128 0x7
	.byte	0x4
	.set L$set$191,LCFI114-LCFI113
	.long L$set$191
	.byte	0xde
	.byte	0xdd
	.byte	0xd3
	.byte	0xd4
	.byte	0xc
	.uleb128 0x1f
	.uleb128 0
	.align	3
LEFDE75:
LSFDE77:
	.set L$set$192,LEFDE77-LASFDE77
	.long L$set$192
LASFDE77:
	.long	LASFDE77-EH_frame1
	.quad	LFB2833-.
	.set L$set$193,LFE2833-LFB2833
	.quad L$set$193
	.uleb128 0x8
	.quad	LLSDA2833-.
	.byte	0x4
	.set L$set$194,LCFI115-LFB2833
	.long L$set$194
	.byte	0xe
	.uleb128 0x50
	.byte	0x9d
	.uleb128 0xa
	.byte	0x9e
	.uleb128 0x9
	.byte	0x4
	.set L$set$195,LCFI116-LCFI115
	.long L$set$195
	.byte	0xd
	.uleb128 0x1d
	.byte	0x4
	.set L$set$196,LCFI117-LCFI116
	.long L$set$196
	.byte	0x93
	.uleb128 0x8
	.byte	0x94
	.uleb128 0x7
	.byte	0x4
	.set L$set$197,LCFI118-LCFI117
	.long L$set$197
	.byte	0xde
	.byte	0xdd
	.byte	0xd3
	.byte	0xd4
	.byte	0xc
	.uleb128 0x1f
	.uleb128 0
	.align	3
LEFDE77:
LSFDE79:
	.set L$set$198,LEFDE79-LASFDE79
	.long L$set$198
LASFDE79:
	.long	LASFDE79-EH_frame1
	.quad	LFB2836-.
	.set L$set$199,LFE2836-LFB2836
	.quad L$set$199
	.uleb128 0x8
	.quad	LLSDA2836-.
	.byte	0x4
	.set L$set$200,LCFI119-LFB2836
	.long L$set$200
	.byte	0xe
	.uleb128 0x50
	.byte	0x9d
	.uleb128 0xa
	.byte	0x9e
	.uleb128 0x9
	.byte	0x4
	.set L$set$201,LCFI120-LCFI119
	.long L$set$201
	.byte	0xd
	.uleb128 0x1d
	.byte	0x4
	.set L$set$202,LCFI121-LCFI120
	.long L$set$202
	.byte	0x93
	.uleb128 0x8
	.byte	0x94
	.uleb128 0x7
	.byte	0x4
	.set L$set$203,LCFI122-LCFI121
	.long L$set$203
	.byte	0xde
	.byte	0xdd
	.byte	0xd3
	.byte	0xd4
	.byte	0xc
	.uleb128 0x1f
	.uleb128 0
	.align	3
LEFDE79:
LSFDE81:
	.set L$set$204,LEFDE81-LASFDE81
	.long L$set$204
LASFDE81:
	.long	LASFDE81-EH_frame1
	.quad	LFB2842-.
	.set L$set$205,LFE2842-LFB2842
	.quad L$set$205
	.uleb128 0x8
	.quad	0
	.byte	0x4
	.set L$set$206,LCFI123-LFB2842
	.long L$set$206
	.byte	0xe
	.uleb128 0x10
	.byte	0x4
	.set L$set$207,LCFI124-LCFI123
	.long L$set$207
	.byte	0xe
	.uleb128 0
	.align	3
LEFDE81:
LSFDE83:
	.set L$set$208,LEFDE83-LASFDE83
	.long L$set$208
LASFDE83:
	.long	LASFDE83-EH_frame1
	.quad	LFB2896-.
	.set L$set$209,LFE2896-LFB2896
	.quad L$set$209
	.uleb128 0x8
	.quad	0
	.byte	0x4
	.set L$set$210,LCFI125-LFB2896
	.long L$set$210
	.byte	0xe
	.uleb128 0x10
	.byte	0x4
	.set L$set$211,LCFI126-LCFI125
	.long L$set$211
	.byte	0xe
	.uleb128 0
	.align	3
LEFDE83:
LSFDE85:
	.set L$set$212,LEFDE85-LASFDE85
	.long L$set$212
LASFDE85:
	.long	LASFDE85-EH_frame1
	.quad	LFB2904-.
	.set L$set$213,LFE2904-LFB2904
	.quad L$set$213
	.uleb128 0x8
	.quad	0
	.byte	0x4
	.set L$set$214,LCFI127-LFB2904
	.long L$set$214
	.byte	0xe
	.uleb128 0x10
	.byte	0x4
	.set L$set$215,LCFI128-LCFI127
	.long L$set$215
	.byte	0xe
	.uleb128 0
	.align	3
LEFDE85:
LSFDE87:
	.set L$set$216,LEFDE87-LASFDE87
	.long L$set$216
LASFDE87:
	.long	LASFDE87-EH_frame1
	.quad	LFB2907-.
	.set L$set$217,LFE2907-LFB2907
	.quad L$set$217
	.uleb128 0x8
	.quad	LLSDA2907-.
	.byte	0x4
	.set L$set$218,LCFI129-LFB2907
	.long L$set$218
	.byte	0xe
	.uleb128 0x20
	.byte	0x9d
	.uleb128 0x4
	.byte	0x9e
	.uleb128 0x3
	.byte	0x4
	.set L$set$219,LCFI130-LCFI129
	.long L$set$219
	.byte	0xd
	.uleb128 0x1d
	.byte	0x4
	.set L$set$220,LCFI131-LCFI130
	.long L$set$220
	.byte	0xde
	.byte	0xdd
	.byte	0xc
	.uleb128 0x1f
	.uleb128 0
	.align	3
LEFDE87:
LSFDE89:
	.set L$set$221,LEFDE89-LASFDE89
	.long L$set$221
LASFDE89:
	.long	LASFDE89-EH_frame1
	.quad	LFB2901-.
	.set L$set$222,LFE2901-LFB2901
	.quad L$set$222
	.uleb128 0x8
	.quad	LLSDA2901-.
	.byte	0x4
	.set L$set$223,LCFI132-LFB2901
	.long L$set$223
	.byte	0xe
	.uleb128 0x80
	.byte	0x9d
	.uleb128 0x10
	.byte	0x9e
	.uleb128 0xf
	.byte	0x4
	.set L$set$224,LCFI133-LCFI132
	.long L$set$224
	.byte	0xd
	.uleb128 0x1d
	.byte	0x4
	.set L$set$225,LCFI134-LCFI133
	.long L$set$225
	.byte	0x93
	.uleb128 0xe
	.byte	0x4
	.set L$set$226,LCFI135-LCFI134
	.long L$set$226
	.byte	0xde
	.byte	0xdd
	.byte	0xd3
	.byte	0xc
	.uleb128 0x1f
	.uleb128 0
	.align	3
LEFDE89:
LSFDE91:
	.set L$set$227,LEFDE91-LASFDE91
	.long L$set$227
LASFDE91:
	.long	LASFDE91-EH_frame1
	.quad	LFB2954-.
	.set L$set$228,LFE2954-LFB2954
	.quad L$set$228
	.uleb128 0x8
	.quad	LLSDA2954-.
	.byte	0x4
	.set L$set$229,LCFI136-LFB2954
	.long L$set$229
	.byte	0xe
	.uleb128 0x50
	.byte	0x9d
	.uleb128 0xa
	.byte	0x9e
	.uleb128 0x9
	.byte	0x4
	.set L$set$230,LCFI137-LCFI136
	.long L$set$230
	.byte	0xd
	.uleb128 0x1d
	.byte	0x4
	.set L$set$231,LCFI138-LCFI137
	.long L$set$231
	.byte	0x93
	.uleb128 0x8
	.byte	0x4
	.set L$set$232,LCFI139-LCFI138
	.long L$set$232
	.byte	0xde
	.byte	0xdd
	.byte	0xd3
	.byte	0xc
	.uleb128 0x1f
	.uleb128 0
	.align	3
LEFDE91:
LSFDE93:
	.set L$set$233,LEFDE93-LASFDE93
	.long L$set$233
LASFDE93:
	.long	LASFDE93-EH_frame1
	.quad	LFB2955-.
	.set L$set$234,LFE2955-LFB2955
	.quad L$set$234
	.uleb128 0x8
	.quad	0
	.byte	0x4
	.set L$set$235,LCFI140-LFB2955
	.long L$set$235
	.byte	0xe
	.uleb128 0x10
	.byte	0x4
	.set L$set$236,LCFI141-LCFI140
	.long L$set$236
	.byte	0xe
	.uleb128 0
	.align	3
LEFDE93:
LSFDE95:
	.set L$set$237,LEFDE95-LASFDE95
	.long L$set$237
LASFDE95:
	.long	LASFDE95-EH_frame1
	.quad	LFB2956-.
	.set L$set$238,LFE2956-LFB2956
	.quad L$set$238
	.uleb128 0x8
	.quad	0
	.byte	0x4
	.set L$set$239,LCFI142-LFB2956
	.long L$set$239
	.byte	0xe
	.uleb128 0x60
	.byte	0x9d
	.uleb128 0xc
	.byte	0x9e
	.uleb128 0xb
	.byte	0x4
	.set L$set$240,LCFI143-LCFI142
	.long L$set$240
	.byte	0xd
	.uleb128 0x1d
	.byte	0x4
	.set L$set$241,LCFI144-LCFI143
	.long L$set$241
	.byte	0x93
	.uleb128 0xa
	.byte	0x94
	.uleb128 0x9
	.byte	0x4
	.set L$set$242,LCFI145-LCFI144
	.long L$set$242
	.byte	0xde
	.byte	0xdd
	.byte	0xd3
	.byte	0xd4
	.byte	0xc
	.uleb128 0x1f
	.uleb128 0
	.align	3
LEFDE95:
LSFDE97:
	.set L$set$243,LEFDE97-LASFDE97
	.long L$set$243
LASFDE97:
	.long	LASFDE97-EH_frame1
	.quad	LFB2961-.
	.set L$set$244,LFE2961-LFB2961
	.quad L$set$244
	.uleb128 0x8
	.quad	0
	.byte	0x4
	.set L$set$245,LCFI146-LFB2961
	.long L$set$245
	.byte	0xe
	.uleb128 0x20
	.byte	0x4
	.set L$set$246,LCFI147-LCFI146
	.long L$set$246
	.byte	0xe
	.uleb128 0
	.align	3
LEFDE97:
LSFDE99:
	.set L$set$247,LEFDE99-LASFDE99
	.long L$set$247
LASFDE99:
	.long	LASFDE99-EH_frame1
	.quad	LFB2964-.
	.set L$set$248,LFE2964-LFB2964
	.quad L$set$248
	.uleb128 0x8
	.quad	0
	.byte	0x4
	.set L$set$249,LCFI148-LFB2964
	.long L$set$249
	.byte	0xe
	.uleb128 0x40
	.byte	0x9d
	.uleb128 0x8
	.byte	0x9e
	.uleb128 0x7
	.byte	0x4
	.set L$set$250,LCFI149-LCFI148
	.long L$set$250
	.byte	0xd
	.uleb128 0x1d
	.byte	0x4
	.set L$set$251,LCFI150-LCFI149
	.long L$set$251
	.byte	0xde
	.byte	0xdd
	.byte	0xc
	.uleb128 0x1f
	.uleb128 0
	.align	3
LEFDE99:
LSFDE101:
	.set L$set$252,LEFDE101-LASFDE101
	.long L$set$252
LASFDE101:
	.long	LASFDE101-EH_frame1
	.quad	LFB2958-.
	.set L$set$253,LFE2958-LFB2958
	.quad L$set$253
	.uleb128 0x8
	.quad	0
	.byte	0x4
	.set L$set$254,LCFI151-LFB2958
	.long L$set$254
	.byte	0xe
	.uleb128 0xc0
	.byte	0x9d
	.uleb128 0x18
	.byte	0x9e
	.uleb128 0x17
	.byte	0x4
	.set L$set$255,LCFI152-LCFI151
	.long L$set$255
	.byte	0xd
	.uleb128 0x1d
	.byte	0x4
	.set L$set$256,LCFI153-LCFI152
	.long L$set$256
	.byte	0x93
	.uleb128 0x16
	.byte	0x94
	.uleb128 0x15
	.byte	0x4
	.set L$set$257,LCFI154-LCFI153
	.long L$set$257
	.byte	0xde
	.byte	0xdd
	.byte	0xd3
	.byte	0xd4
	.byte	0xc
	.uleb128 0x1f
	.uleb128 0
	.align	3
LEFDE101:
LSFDE103:
	.set L$set$258,LEFDE103-LASFDE103
	.long L$set$258
LASFDE103:
	.long	LASFDE103-EH_frame1
	.quad	LFB2968-.
	.set L$set$259,LFE2968-LFB2968
	.quad L$set$259
	.uleb128 0x8
	.quad	0
	.byte	0x4
	.set L$set$260,LCFI155-LFB2968
	.long L$set$260
	.byte	0xe
	.uleb128 0x30
	.byte	0x9d
	.uleb128 0x6
	.byte	0x9e
	.uleb128 0x5
	.byte	0x4
	.set L$set$261,LCFI156-LCFI155
	.long L$set$261
	.byte	0xd
	.uleb128 0x1d
	.byte	0x4
	.set L$set$262,LCFI157-LCFI156
	.long L$set$262
	.byte	0xde
	.byte	0xdd
	.byte	0xc
	.uleb128 0x1f
	.uleb128 0
	.align	3
LEFDE103:
LSFDE105:
	.set L$set$263,LEFDE105-LASFDE105
	.long L$set$263
LASFDE105:
	.long	LASFDE105-EH_frame1
	.quad	LFB2969-.
	.set L$set$264,LFE2969-LFB2969
	.quad L$set$264
	.uleb128 0x8
	.quad	0
	.byte	0x4
	.set L$set$265,LCFI158-LFB2969
	.long L$set$265
	.byte	0xe
	.uleb128 0x30
	.byte	0x9d
	.uleb128 0x6
	.byte	0x9e
	.uleb128 0x5
	.byte	0x4
	.set L$set$266,LCFI159-LCFI158
	.long L$set$266
	.byte	0xd
	.uleb128 0x1d
	.byte	0x4
	.set L$set$267,LCFI160-LCFI159
	.long L$set$267
	.byte	0xde
	.byte	0xdd
	.byte	0xc
	.uleb128 0x1f
	.uleb128 0
	.align	3
LEFDE105:
LSFDE107:
	.set L$set$268,LEFDE107-LASFDE107
	.long L$set$268
LASFDE107:
	.long	LASFDE107-EH_frame1
	.quad	LFB2970-.
	.set L$set$269,LFE2970-LFB2970
	.quad L$set$269
	.uleb128 0x8
	.quad	0
	.byte	0x4
	.set L$set$270,LCFI161-LFB2970
	.long L$set$270
	.byte	0xe
	.uleb128 0x10
	.byte	0x4
	.set L$set$271,LCFI162-LCFI161
	.long L$set$271
	.byte	0xe
	.uleb128 0
	.align	3
LEFDE107:
LSFDE109:
	.set L$set$272,LEFDE109-LASFDE109
	.long L$set$272
LASFDE109:
	.long	LASFDE109-EH_frame1
	.quad	LFB2974-.
	.set L$set$273,LFE2974-LFB2974
	.quad L$set$273
	.uleb128 0x8
	.quad	0
	.byte	0x4
	.set L$set$274,LCFI163-LFB2974
	.long L$set$274
	.byte	0xe
	.uleb128 0x10
	.byte	0x4
	.set L$set$275,LCFI164-LCFI163
	.long L$set$275
	.byte	0xe
	.uleb128 0
	.align	3
LEFDE109:
LSFDE111:
	.set L$set$276,LEFDE111-LASFDE111
	.long L$set$276
LASFDE111:
	.long	LASFDE111-EH_frame1
	.quad	LFB2975-.
	.set L$set$277,LFE2975-LFB2975
	.quad L$set$277
	.uleb128 0x8
	.quad	0
	.byte	0x4
	.set L$set$278,LCFI165-LFB2975
	.long L$set$278
	.byte	0xe
	.uleb128 0x10
	.byte	0x4
	.set L$set$279,LCFI166-LCFI165
	.long L$set$279
	.byte	0xe
	.uleb128 0
	.align	3
LEFDE111:
LSFDE113:
	.set L$set$280,LEFDE113-LASFDE113
	.long L$set$280
LASFDE113:
	.long	LASFDE113-EH_frame1
	.quad	LFB2976-.
	.set L$set$281,LFE2976-LFB2976
	.quad L$set$281
	.uleb128 0x8
	.quad	0
	.byte	0x4
	.set L$set$282,LCFI167-LFB2976
	.long L$set$282
	.byte	0xe
	.uleb128 0x30
	.byte	0x9d
	.uleb128 0x6
	.byte	0x9e
	.uleb128 0x5
	.byte	0x4
	.set L$set$283,LCFI168-LCFI167
	.long L$set$283
	.byte	0xd
	.uleb128 0x1d
	.byte	0x4
	.set L$set$284,LCFI169-LCFI168
	.long L$set$284
	.byte	0xde
	.byte	0xdd
	.byte	0xc
	.uleb128 0x1f
	.uleb128 0
	.align	3
LEFDE113:
LSFDE115:
	.set L$set$285,LEFDE115-LASFDE115
	.long L$set$285
LASFDE115:
	.long	LASFDE115-EH_frame1
	.quad	LFB2977-.
	.set L$set$286,LFE2977-LFB2977
	.quad L$set$286
	.uleb128 0x8
	.quad	0
	.byte	0x4
	.set L$set$287,LCFI170-LFB2977
	.long L$set$287
	.byte	0xe
	.uleb128 0x30
	.byte	0x9d
	.uleb128 0x6
	.byte	0x9e
	.uleb128 0x5
	.byte	0x4
	.set L$set$288,LCFI171-LCFI170
	.long L$set$288
	.byte	0xd
	.uleb128 0x1d
	.byte	0x4
	.set L$set$289,LCFI172-LCFI171
	.long L$set$289
	.byte	0x93
	.uleb128 0x4
	.byte	0x4
	.set L$set$290,LCFI173-LCFI172
	.long L$set$290
	.byte	0xde
	.byte	0xdd
	.byte	0xd3
	.byte	0xc
	.uleb128 0x1f
	.uleb128 0
	.align	3
LEFDE115:
LSFDE117:
	.set L$set$291,LEFDE117-LASFDE117
	.long L$set$291
LASFDE117:
	.long	LASFDE117-EH_frame1
	.quad	LFB2978-.
	.set L$set$292,LFE2978-LFB2978
	.quad L$set$292
	.uleb128 0x8
	.quad	0
	.byte	0x4
	.set L$set$293,LCFI174-LFB2978
	.long L$set$293
	.byte	0xe
	.uleb128 0x30
	.byte	0x9d
	.uleb128 0x6
	.byte	0x9e
	.uleb128 0x5
	.byte	0x4
	.set L$set$294,LCFI175-LCFI174
	.long L$set$294
	.byte	0xd
	.uleb128 0x1d
	.byte	0x4
	.set L$set$295,LCFI176-LCFI175
	.long L$set$295
	.byte	0xde
	.byte	0xdd
	.byte	0xc
	.uleb128 0x1f
	.uleb128 0
	.align	3
LEFDE117:
LSFDE119:
	.set L$set$296,LEFDE119-LASFDE119
	.long L$set$296
LASFDE119:
	.long	LASFDE119-EH_frame1
	.quad	LFB2979-.
	.set L$set$297,LFE2979-LFB2979
	.quad L$set$297
	.uleb128 0x8
	.quad	0
	.byte	0x4
	.set L$set$298,LCFI177-LFB2979
	.long L$set$298
	.byte	0xe
	.uleb128 0x60
	.byte	0x9d
	.uleb128 0xc
	.byte	0x9e
	.uleb128 0xb
	.byte	0x4
	.set L$set$299,LCFI178-LCFI177
	.long L$set$299
	.byte	0xd
	.uleb128 0x1d
	.byte	0x4
	.set L$set$300,LCFI179-LCFI178
	.long L$set$300
	.byte	0x93
	.uleb128 0xa
	.byte	0x4
	.set L$set$301,LCFI180-LCFI179
	.long L$set$301
	.byte	0xde
	.byte	0xdd
	.byte	0xd3
	.byte	0xc
	.uleb128 0x1f
	.uleb128 0
	.align	3
LEFDE119:
LSFDE121:
	.set L$set$302,LEFDE121-LASFDE121
	.long L$set$302
LASFDE121:
	.long	LASFDE121-EH_frame1
	.quad	LFB3005-.
	.set L$set$303,LFE3005-LFB3005
	.quad L$set$303
	.uleb128 0x8
	.quad	0
	.byte	0x4
	.set L$set$304,LCFI181-LFB3005
	.long L$set$304
	.byte	0xe
	.uleb128 0x10
	.byte	0x4
	.set L$set$305,LCFI182-LCFI181
	.long L$set$305
	.byte	0xe
	.uleb128 0
	.align	3
LEFDE121:
LSFDE123:
	.set L$set$306,LEFDE123-LASFDE123
	.long L$set$306
LASFDE123:
	.long	LASFDE123-EH_frame1
	.quad	LFB3010-.
	.set L$set$307,LFE3010-LFB3010
	.quad L$set$307
	.uleb128 0x8
	.quad	0
	.byte	0x4
	.set L$set$308,LCFI183-LFB3010
	.long L$set$308
	.byte	0xe
	.uleb128 0x30
	.byte	0x9d
	.uleb128 0x6
	.byte	0x9e
	.uleb128 0x5
	.byte	0x4
	.set L$set$309,LCFI184-LCFI183
	.long L$set$309
	.byte	0xd
	.uleb128 0x1d
	.byte	0x4
	.set L$set$310,LCFI185-LCFI184
	.long L$set$310
	.byte	0xde
	.byte	0xdd
	.byte	0xc
	.uleb128 0x1f
	.uleb128 0
	.align	3
LEFDE123:
LSFDE125:
	.set L$set$311,LEFDE125-LASFDE125
	.long L$set$311
LASFDE125:
	.long	LASFDE125-EH_frame1
	.quad	LFB3011-.
	.set L$set$312,LFE3011-LFB3011
	.quad L$set$312
	.uleb128 0x8
	.quad	0
	.byte	0x4
	.set L$set$313,LCFI186-LFB3011
	.long L$set$313
	.byte	0xe
	.uleb128 0x20
	.byte	0x9d
	.uleb128 0x4
	.byte	0x9e
	.uleb128 0x3
	.byte	0x4
	.set L$set$314,LCFI187-LCFI186
	.long L$set$314
	.byte	0xd
	.uleb128 0x1d
	.byte	0x4
	.set L$set$315,LCFI188-LCFI187
	.long L$set$315
	.byte	0xde
	.byte	0xdd
	.byte	0xc
	.uleb128 0x1f
	.uleb128 0
	.align	3
LEFDE125:
LSFDE127:
	.set L$set$316,LEFDE127-LASFDE127
	.long L$set$316
LASFDE127:
	.long	LASFDE127-EH_frame1
	.quad	LFB3014-.
	.set L$set$317,LFE3014-LFB3014
	.quad L$set$317
	.uleb128 0x8
	.quad	LLSDA3014-.
	.byte	0x4
	.set L$set$318,LCFI189-LFB3014
	.long L$set$318
	.byte	0xe
	.uleb128 0x20
	.byte	0x9d
	.uleb128 0x4
	.byte	0x9e
	.uleb128 0x3
	.byte	0x4
	.set L$set$319,LCFI190-LCFI189
	.long L$set$319
	.byte	0xd
	.uleb128 0x1d
	.byte	0x4
	.set L$set$320,LCFI191-LCFI190
	.long L$set$320
	.byte	0xde
	.byte	0xdd
	.byte	0xc
	.uleb128 0x1f
	.uleb128 0
	.align	3
LEFDE127:
LSFDE129:
	.set L$set$321,LEFDE129-LASFDE129
	.long L$set$321
LASFDE129:
	.long	LASFDE129-EH_frame1
	.quad	LFB3016-.
	.set L$set$322,LFE3016-LFB3016
	.quad L$set$322
	.uleb128 0x8
	.quad	0
	.byte	0x4
	.set L$set$323,LCFI192-LFB3016
	.long L$set$323
	.byte	0xe
	.uleb128 0x10
	.byte	0x4
	.set L$set$324,LCFI193-LCFI192
	.long L$set$324
	.byte	0xe
	.uleb128 0
	.align	3
LEFDE129:
LSFDE131:
	.set L$set$325,LEFDE131-LASFDE131
	.long L$set$325
LASFDE131:
	.long	LASFDE131-EH_frame1
	.quad	LFB3017-.
	.set L$set$326,LFE3017-LFB3017
	.quad L$set$326
	.uleb128 0x8
	.quad	0
	.byte	0x4
	.set L$set$327,LCFI194-LFB3017
	.long L$set$327
	.byte	0xe
	.uleb128 0x30
	.byte	0x9d
	.uleb128 0x6
	.byte	0x9e
	.uleb128 0x5
	.byte	0x4
	.set L$set$328,LCFI195-LCFI194
	.long L$set$328
	.byte	0xd
	.uleb128 0x1d
	.byte	0x4
	.set L$set$329,LCFI196-LCFI195
	.long L$set$329
	.byte	0x93
	.uleb128 0x4
	.byte	0x4
	.set L$set$330,LCFI197-LCFI196
	.long L$set$330
	.byte	0xde
	.byte	0xdd
	.byte	0xd3
	.byte	0xc
	.uleb128 0x1f
	.uleb128 0
	.align	3
LEFDE131:
LSFDE133:
	.set L$set$331,LEFDE133-LASFDE133
	.long L$set$331
LASFDE133:
	.long	LASFDE133-EH_frame1
	.quad	LFB3018-.
	.set L$set$332,LFE3018-LFB3018
	.quad L$set$332
	.uleb128 0x8
	.quad	0
	.byte	0x4
	.set L$set$333,LCFI198-LFB3018
	.long L$set$333
	.byte	0xe
	.uleb128 0x70
	.byte	0x9d
	.uleb128 0xe
	.byte	0x9e
	.uleb128 0xd
	.byte	0x4
	.set L$set$334,LCFI199-LCFI198
	.long L$set$334
	.byte	0xd
	.uleb128 0x1d
	.byte	0x4
	.set L$set$335,LCFI200-LCFI199
	.long L$set$335
	.byte	0x93
	.uleb128 0xc
	.byte	0x4
	.set L$set$336,LCFI201-LCFI200
	.long L$set$336
	.byte	0xde
	.byte	0xdd
	.byte	0xd3
	.byte	0xc
	.uleb128 0x1f
	.uleb128 0
	.align	3
LEFDE133:
LSFDE135:
	.set L$set$337,LEFDE135-LASFDE135
	.long L$set$337
LASFDE135:
	.long	LASFDE135-EH_frame1
	.quad	LFB3020-.
	.set L$set$338,LFE3020-LFB3020
	.quad L$set$338
	.uleb128 0x8
	.quad	0
	.byte	0x4
	.set L$set$339,LCFI202-LFB3020
	.long L$set$339
	.byte	0xe
	.uleb128 0x10
	.byte	0x4
	.set L$set$340,LCFI203-LCFI202
	.long L$set$340
	.byte	0xe
	.uleb128 0
	.align	3
LEFDE135:
LSFDE137:
	.set L$set$341,LEFDE137-LASFDE137
	.long L$set$341
LASFDE137:
	.long	LASFDE137-EH_frame1
	.quad	LFB3083-.
	.set L$set$342,LFE3083-LFB3083
	.quad L$set$342
	.uleb128 0x8
	.quad	0
	.byte	0x4
	.set L$set$343,LCFI204-LFB3083
	.long L$set$343
	.byte	0xe
	.uleb128 0x10
	.byte	0x4
	.set L$set$344,LCFI205-LCFI204
	.long L$set$344
	.byte	0xe
	.uleb128 0
	.align	3
LEFDE137:
LSFDE139:
	.set L$set$345,LEFDE139-LASFDE139
	.long L$set$345
LASFDE139:
	.long	LASFDE139-EH_frame1
	.quad	LFB3088-.
	.set L$set$346,LFE3088-LFB3088
	.quad L$set$346
	.uleb128 0x8
	.quad	0
	.byte	0x4
	.set L$set$347,LCFI206-LFB3088
	.long L$set$347
	.byte	0xe
	.uleb128 0x20
	.byte	0x4
	.set L$set$348,LCFI207-LCFI206
	.long L$set$348
	.byte	0xe
	.uleb128 0
	.align	3
LEFDE139:
LSFDE141:
	.set L$set$349,LEFDE141-LASFDE141
	.long L$set$349
LASFDE141:
	.long	LASFDE141-EH_frame1
	.quad	LFB3091-.
	.set L$set$350,LFE3091-LFB3091
	.quad L$set$350
	.uleb128 0x8
	.quad	0
	.byte	0x4
	.set L$set$351,LCFI208-LFB3091
	.long L$set$351
	.byte	0xe
	.uleb128 0x40
	.byte	0x9d
	.uleb128 0x8
	.byte	0x9e
	.uleb128 0x7
	.byte	0x4
	.set L$set$352,LCFI209-LCFI208
	.long L$set$352
	.byte	0xd
	.uleb128 0x1d
	.byte	0x4
	.set L$set$353,LCFI210-LCFI209
	.long L$set$353
	.byte	0xde
	.byte	0xdd
	.byte	0xc
	.uleb128 0x1f
	.uleb128 0
	.align	3
LEFDE141:
LSFDE143:
	.set L$set$354,LEFDE143-LASFDE143
	.long L$set$354
LASFDE143:
	.long	LASFDE143-EH_frame1
	.quad	LFB3085-.
	.set L$set$355,LFE3085-LFB3085
	.quad L$set$355
	.uleb128 0x8
	.quad	0
	.byte	0x4
	.set L$set$356,LCFI211-LFB3085
	.long L$set$356
	.byte	0xe
	.uleb128 0xc0
	.byte	0x9d
	.uleb128 0x18
	.byte	0x9e
	.uleb128 0x17
	.byte	0x4
	.set L$set$357,LCFI212-LCFI211
	.long L$set$357
	.byte	0xd
	.uleb128 0x1d
	.byte	0x4
	.set L$set$358,LCFI213-LCFI212
	.long L$set$358
	.byte	0x93
	.uleb128 0x16
	.byte	0x94
	.uleb128 0x15
	.byte	0x4
	.set L$set$359,LCFI214-LCFI213
	.long L$set$359
	.byte	0xde
	.byte	0xdd
	.byte	0xd3
	.byte	0xd4
	.byte	0xc
	.uleb128 0x1f
	.uleb128 0
	.align	3
LEFDE143:
LSFDE145:
	.set L$set$360,LEFDE145-LASFDE145
	.long L$set$360
LASFDE145:
	.long	LASFDE145-EH_frame1
	.quad	LFB3092-.
	.set L$set$361,LFE3092-LFB3092
	.quad L$set$361
	.uleb128 0x8
	.quad	0
	.byte	0x4
	.set L$set$362,LCFI215-LFB3092
	.long L$set$362
	.byte	0xe
	.uleb128 0x10
	.byte	0x4
	.set L$set$363,LCFI216-LCFI215
	.long L$set$363
	.byte	0xe
	.uleb128 0
	.align	3
LEFDE145:
LSFDE147:
	.set L$set$364,LEFDE147-LASFDE147
	.long L$set$364
LASFDE147:
	.long	LASFDE147-EH_frame1
	.quad	LFB3094-.
	.set L$set$365,LFE3094-LFB3094
	.quad L$set$365
	.uleb128 0x8
	.quad	0
	.byte	0x4
	.set L$set$366,LCFI217-LFB3094
	.long L$set$366
	.byte	0xe
	.uleb128 0x50
	.byte	0x9d
	.uleb128 0xa
	.byte	0x9e
	.uleb128 0x9
	.byte	0x4
	.set L$set$367,LCFI218-LCFI217
	.long L$set$367
	.byte	0xd
	.uleb128 0x1d
	.byte	0x4
	.set L$set$368,LCFI219-LCFI218
	.long L$set$368
	.byte	0x93
	.uleb128 0x8
	.byte	0x4
	.set L$set$369,LCFI220-LCFI219
	.long L$set$369
	.byte	0xde
	.byte	0xdd
	.byte	0xd3
	.byte	0xc
	.uleb128 0x1f
	.uleb128 0
	.align	3
LEFDE147:
LSFDE149:
	.set L$set$370,LEFDE149-LASFDE149
	.long L$set$370
LASFDE149:
	.long	LASFDE149-EH_frame1
	.quad	LFB3095-.
	.set L$set$371,LFE3095-LFB3095
	.quad L$set$371
	.uleb128 0x8
	.quad	0
	.byte	0x4
	.set L$set$372,LCFI221-LFB3095
	.long L$set$372
	.byte	0xe
	.uleb128 0x30
	.byte	0x9d
	.uleb128 0x6
	.byte	0x9e
	.uleb128 0x5
	.byte	0x4
	.set L$set$373,LCFI222-LCFI221
	.long L$set$373
	.byte	0xd
	.uleb128 0x1d
	.byte	0x4
	.set L$set$374,LCFI223-LCFI222
	.long L$set$374
	.byte	0x93
	.uleb128 0x4
	.byte	0x4
	.set L$set$375,LCFI224-LCFI223
	.long L$set$375
	.byte	0xde
	.byte	0xdd
	.byte	0xd3
	.byte	0xc
	.uleb128 0x1f
	.uleb128 0
	.align	3
LEFDE149:
LSFDE151:
	.set L$set$376,LEFDE151-LASFDE151
	.long L$set$376
LASFDE151:
	.long	LASFDE151-EH_frame1
	.quad	LFB3096-.
	.set L$set$377,LFE3096-LFB3096
	.quad L$set$377
	.uleb128 0x8
	.quad	0
	.byte	0x4
	.set L$set$378,LCFI225-LFB3096
	.long L$set$378
	.byte	0xe
	.uleb128 0x30
	.byte	0x9d
	.uleb128 0x6
	.byte	0x9e
	.uleb128 0x5
	.byte	0x4
	.set L$set$379,LCFI226-LCFI225
	.long L$set$379
	.byte	0xd
	.uleb128 0x1d
	.byte	0x4
	.set L$set$380,LCFI227-LCFI226
	.long L$set$380
	.byte	0xde
	.byte	0xdd
	.byte	0xc
	.uleb128 0x1f
	.uleb128 0
	.align	3
LEFDE151:
LSFDE153:
	.set L$set$381,LEFDE153-LASFDE153
	.long L$set$381
LASFDE153:
	.long	LASFDE153-EH_frame1
	.quad	LFB3098-.
	.set L$set$382,LFE3098-LFB3098
	.quad L$set$382
	.uleb128 0x8
	.quad	0
	.byte	0x4
	.set L$set$383,LCFI228-LFB3098
	.long L$set$383
	.byte	0xe
	.uleb128 0x10
	.byte	0x4
	.set L$set$384,LCFI229-LCFI228
	.long L$set$384
	.byte	0xe
	.uleb128 0
	.align	3
LEFDE153:
LSFDE155:
	.set L$set$385,LEFDE155-LASFDE155
	.long L$set$385
LASFDE155:
	.long	LASFDE155-EH_frame1
	.quad	LFB3099-.
	.set L$set$386,LFE3099-LFB3099
	.quad L$set$386
	.uleb128 0x8
	.quad	0
	.byte	0x4
	.set L$set$387,LCFI230-LFB3099
	.long L$set$387
	.byte	0xe
	.uleb128 0x30
	.byte	0x9d
	.uleb128 0x6
	.byte	0x9e
	.uleb128 0x5
	.byte	0x4
	.set L$set$388,LCFI231-LCFI230
	.long L$set$388
	.byte	0xd
	.uleb128 0x1d
	.byte	0x4
	.set L$set$389,LCFI232-LCFI231
	.long L$set$389
	.byte	0xde
	.byte	0xdd
	.byte	0xc
	.uleb128 0x1f
	.uleb128 0
	.align	3
LEFDE155:
LSFDE157:
	.set L$set$390,LEFDE157-LASFDE157
	.long L$set$390
LASFDE157:
	.long	LASFDE157-EH_frame1
	.quad	LFB3103-.
	.set L$set$391,LFE3103-LFB3103
	.quad L$set$391
	.uleb128 0x8
	.quad	0
	.byte	0x4
	.set L$set$392,LCFI233-LFB3103
	.long L$set$392
	.byte	0xe
	.uleb128 0x10
	.byte	0x4
	.set L$set$393,LCFI234-LCFI233
	.long L$set$393
	.byte	0xe
	.uleb128 0
	.align	3
LEFDE157:
LSFDE159:
	.set L$set$394,LEFDE159-LASFDE159
	.long L$set$394
LASFDE159:
	.long	LASFDE159-EH_frame1
	.quad	LFB3104-.
	.set L$set$395,LFE3104-LFB3104
	.quad L$set$395
	.uleb128 0x8
	.quad	0
	.byte	0x4
	.set L$set$396,LCFI235-LFB3104
	.long L$set$396
	.byte	0xe
	.uleb128 0x10
	.byte	0x4
	.set L$set$397,LCFI236-LCFI235
	.long L$set$397
	.byte	0xe
	.uleb128 0
	.align	3
LEFDE159:
LSFDE161:
	.set L$set$398,LEFDE161-LASFDE161
	.long L$set$398
LASFDE161:
	.long	LASFDE161-EH_frame1
	.quad	LFB3105-.
	.set L$set$399,LFE3105-LFB3105
	.quad L$set$399
	.uleb128 0x8
	.quad	0
	.byte	0x4
	.set L$set$400,LCFI237-LFB3105
	.long L$set$400
	.byte	0xe
	.uleb128 0x30
	.byte	0x9d
	.uleb128 0x6
	.byte	0x9e
	.uleb128 0x5
	.byte	0x4
	.set L$set$401,LCFI238-LCFI237
	.long L$set$401
	.byte	0xd
	.uleb128 0x1d
	.byte	0x4
	.set L$set$402,LCFI239-LCFI238
	.long L$set$402
	.byte	0x93
	.uleb128 0x4
	.byte	0x4
	.set L$set$403,LCFI240-LCFI239
	.long L$set$403
	.byte	0xde
	.byte	0xdd
	.byte	0xd3
	.byte	0xc
	.uleb128 0x1f
	.uleb128 0
	.align	3
LEFDE161:
LSFDE163:
	.set L$set$404,LEFDE163-LASFDE163
	.long L$set$404
LASFDE163:
	.long	LASFDE163-EH_frame1
	.quad	LFB3106-.
	.set L$set$405,LFE3106-LFB3106
	.quad L$set$405
	.uleb128 0x8
	.quad	0
	.byte	0x4
	.set L$set$406,LCFI241-LFB3106
	.long L$set$406
	.byte	0xe
	.uleb128 0x40
	.byte	0x9d
	.uleb128 0x8
	.byte	0x9e
	.uleb128 0x7
	.byte	0x4
	.set L$set$407,LCFI242-LCFI241
	.long L$set$407
	.byte	0xd
	.uleb128 0x1d
	.byte	0x4
	.set L$set$408,LCFI243-LCFI242
	.long L$set$408
	.byte	0x93
	.uleb128 0x6
	.byte	0x4
	.set L$set$409,LCFI244-LCFI243
	.long L$set$409
	.byte	0xde
	.byte	0xdd
	.byte	0xd3
	.byte	0xc
	.uleb128 0x1f
	.uleb128 0
	.align	3
LEFDE163:
LSFDE165:
	.set L$set$410,LEFDE165-LASFDE165
	.long L$set$410
LASFDE165:
	.long	LASFDE165-EH_frame1
	.quad	LFB3126-.
	.set L$set$411,LFE3126-LFB3126
	.quad L$set$411
	.uleb128 0x8
	.quad	0
	.byte	0x4
	.set L$set$412,LCFI245-LFB3126
	.long L$set$412
	.byte	0xe
	.uleb128 0x40
	.byte	0x9d
	.uleb128 0x8
	.byte	0x9e
	.uleb128 0x7
	.byte	0x4
	.set L$set$413,LCFI246-LCFI245
	.long L$set$413
	.byte	0xd
	.uleb128 0x1d
	.byte	0x4
	.set L$set$414,LCFI247-LCFI246
	.long L$set$414
	.byte	0xde
	.byte	0xdd
	.byte	0xc
	.uleb128 0x1f
	.uleb128 0
	.align	3
LEFDE165:
LSFDE167:
	.set L$set$415,LEFDE167-LASFDE167
	.long L$set$415
LASFDE167:
	.long	LASFDE167-EH_frame1
	.quad	LFB3127-.
	.set L$set$416,LFE3127-LFB3127
	.quad L$set$416
	.uleb128 0x8
	.quad	0
	.byte	0x4
	.set L$set$417,LCFI248-LFB3127
	.long L$set$417
	.byte	0xe
	.uleb128 0x50
	.byte	0x9d
	.uleb128 0xa
	.byte	0x9e
	.uleb128 0x9
	.byte	0x4
	.set L$set$418,LCFI249-LCFI248
	.long L$set$418
	.byte	0xd
	.uleb128 0x1d
	.byte	0x4
	.set L$set$419,LCFI250-LCFI249
	.long L$set$419
	.byte	0xde
	.byte	0xdd
	.byte	0xc
	.uleb128 0x1f
	.uleb128 0
	.align	3
LEFDE167:
LSFDE169:
	.set L$set$420,LEFDE169-LASFDE169
	.long L$set$420
LASFDE169:
	.long	LASFDE169-EH_frame1
	.quad	LFB3128-.
	.set L$set$421,LFE3128-LFB3128
	.quad L$set$421
	.uleb128 0x8
	.quad	0
	.byte	0x4
	.set L$set$422,LCFI251-LFB3128
	.long L$set$422
	.byte	0xe
	.uleb128 0x10
	.byte	0x4
	.set L$set$423,LCFI252-LCFI251
	.long L$set$423
	.byte	0xe
	.uleb128 0
	.align	3
LEFDE169:
LSFDE171:
	.set L$set$424,LEFDE171-LASFDE171
	.long L$set$424
LASFDE171:
	.long	LASFDE171-EH_frame1
	.quad	LFB3131-.
	.set L$set$425,LFE3131-LFB3131
	.quad L$set$425
	.uleb128 0x8
	.quad	0
	.byte	0x4
	.set L$set$426,LCFI253-LFB3131
	.long L$set$426
	.byte	0xe
	.uleb128 0x50
	.byte	0x9d
	.uleb128 0xa
	.byte	0x9e
	.uleb128 0x9
	.byte	0x4
	.set L$set$427,LCFI254-LCFI253
	.long L$set$427
	.byte	0xd
	.uleb128 0x1d
	.byte	0x4
	.set L$set$428,LCFI255-LCFI254
	.long L$set$428
	.byte	0x93
	.uleb128 0x8
	.byte	0x4
	.set L$set$429,LCFI256-LCFI255
	.long L$set$429
	.byte	0xde
	.byte	0xdd
	.byte	0xd3
	.byte	0xc
	.uleb128 0x1f
	.uleb128 0
	.align	3
LEFDE171:
LSFDE173:
	.set L$set$430,LEFDE173-LASFDE173
	.long L$set$430
LASFDE173:
	.long	LASFDE173-EH_frame1
	.quad	LFB3132-.
	.set L$set$431,LFE3132-LFB3132
	.quad L$set$431
	.uleb128 0x8
	.quad	0
	.byte	0x4
	.set L$set$432,LCFI257-LFB3132
	.long L$set$432
	.byte	0xe
	.uleb128 0x30
	.byte	0x9d
	.uleb128 0x6
	.byte	0x9e
	.uleb128 0x5
	.byte	0x4
	.set L$set$433,LCFI258-LCFI257
	.long L$set$433
	.byte	0xd
	.uleb128 0x1d
	.byte	0x4
	.set L$set$434,LCFI259-LCFI258
	.long L$set$434
	.byte	0xde
	.byte	0xdd
	.byte	0xc
	.uleb128 0x1f
	.uleb128 0
	.align	3
LEFDE173:
LSFDE175:
	.set L$set$435,LEFDE175-LASFDE175
	.long L$set$435
LASFDE175:
	.long	LASFDE175-EH_frame1
	.quad	LFB3133-.
	.set L$set$436,LFE3133-LFB3133
	.quad L$set$436
	.uleb128 0x8
	.quad	0
	.byte	0x4
	.set L$set$437,LCFI260-LFB3133
	.long L$set$437
	.byte	0xe
	.uleb128 0x20
	.byte	0x9d
	.uleb128 0x4
	.byte	0x9e
	.uleb128 0x3
	.byte	0x4
	.set L$set$438,LCFI261-LCFI260
	.long L$set$438
	.byte	0xd
	.uleb128 0x1d
	.byte	0x4
	.set L$set$439,LCFI262-LCFI261
	.long L$set$439
	.byte	0xde
	.byte	0xdd
	.byte	0xc
	.uleb128 0x1f
	.uleb128 0
	.align	3
LEFDE175:
LSFDE177:
	.set L$set$440,LEFDE177-LASFDE177
	.long L$set$440
LASFDE177:
	.long	LASFDE177-EH_frame1
	.quad	LFB3193-.
	.set L$set$441,LFE3193-LFB3193
	.quad L$set$441
	.uleb128 0x8
	.quad	0
	.byte	0x4
	.set L$set$442,LCFI263-LFB3193
	.long L$set$442
	.byte	0xe
	.uleb128 0x20
	.byte	0x9d
	.uleb128 0x4
	.byte	0x9e
	.uleb128 0x3
	.byte	0x4
	.set L$set$443,LCFI264-LCFI263
	.long L$set$443
	.byte	0xd
	.uleb128 0x1d
	.byte	0x4
	.set L$set$444,LCFI265-LCFI264
	.long L$set$444
	.byte	0xde
	.byte	0xdd
	.byte	0xc
	.uleb128 0x1f
	.uleb128 0
	.align	3
LEFDE177:
LSFDE179:
	.set L$set$445,LEFDE179-LASFDE179
	.long L$set$445
LASFDE179:
	.long	LASFDE179-EH_frame1
	.quad	LFB3194-.
	.set L$set$446,LFE3194-LFB3194
	.quad L$set$446
	.uleb128 0x8
	.quad	0
	.byte	0x4
	.set L$set$447,LCFI266-LFB3194
	.long L$set$447
	.byte	0xe
	.uleb128 0x10
	.byte	0x4
	.set L$set$448,LCFI267-LCFI266
	.long L$set$448
	.byte	0xe
	.uleb128 0
	.align	3
LEFDE179:
LSFDE181:
	.set L$set$449,LEFDE181-LASFDE181
	.long L$set$449
LASFDE181:
	.long	LASFDE181-EH_frame1
	.quad	LFB3196-.
	.set L$set$450,LFE3196-LFB3196
	.quad L$set$450
	.uleb128 0x8
	.quad	0
	.byte	0x4
	.set L$set$451,LCFI268-LFB3196
	.long L$set$451
	.byte	0xe
	.uleb128 0x30
	.byte	0x9d
	.uleb128 0x6
	.byte	0x9e
	.uleb128 0x5
	.byte	0x4
	.set L$set$452,LCFI269-LCFI268
	.long L$set$452
	.byte	0xd
	.uleb128 0x1d
	.byte	0x4
	.set L$set$453,LCFI270-LCFI269
	.long L$set$453
	.byte	0xde
	.byte	0xdd
	.byte	0xc
	.uleb128 0x1f
	.uleb128 0
	.align	3
LEFDE181:
LSFDE183:
	.set L$set$454,LEFDE183-LASFDE183
	.long L$set$454
LASFDE183:
	.long	LASFDE183-EH_frame1
	.quad	LFB3197-.
	.set L$set$455,LFE3197-LFB3197
	.quad L$set$455
	.uleb128 0x8
	.quad	0
	.byte	0x4
	.set L$set$456,LCFI271-LFB3197
	.long L$set$456
	.byte	0xe
	.uleb128 0x40
	.byte	0x9d
	.uleb128 0x8
	.byte	0x9e
	.uleb128 0x7
	.byte	0x4
	.set L$set$457,LCFI272-LCFI271
	.long L$set$457
	.byte	0xd
	.uleb128 0x1d
	.byte	0x4
	.set L$set$458,LCFI273-LCFI272
	.long L$set$458
	.byte	0x93
	.uleb128 0x6
	.byte	0x94
	.uleb128 0x5
	.byte	0x4
	.set L$set$459,LCFI274-LCFI273
	.long L$set$459
	.byte	0xde
	.byte	0xdd
	.byte	0xd3
	.byte	0xd4
	.byte	0xc
	.uleb128 0x1f
	.uleb128 0
	.align	3
LEFDE183:
LSFDE185:
	.set L$set$460,LEFDE185-LASFDE185
	.long L$set$460
LASFDE185:
	.long	LASFDE185-EH_frame1
	.quad	LFB3198-.
	.set L$set$461,LFE3198-LFB3198
	.quad L$set$461
	.uleb128 0x8
	.quad	0
	.byte	0x4
	.set L$set$462,LCFI275-LFB3198
	.long L$set$462
	.byte	0xe
	.uleb128 0x10
	.byte	0x4
	.set L$set$463,LCFI276-LCFI275
	.long L$set$463
	.byte	0xe
	.uleb128 0
	.align	3
LEFDE185:
LSFDE187:
	.set L$set$464,LEFDE187-LASFDE187
	.long L$set$464
LASFDE187:
	.long	LASFDE187-EH_frame1
	.quad	LFB3199-.
	.set L$set$465,LFE3199-LFB3199
	.quad L$set$465
	.uleb128 0x8
	.quad	0
	.byte	0x4
	.set L$set$466,LCFI277-LFB3199
	.long L$set$466
	.byte	0xe
	.uleb128 0x40
	.byte	0x9d
	.uleb128 0x8
	.byte	0x9e
	.uleb128 0x7
	.byte	0x4
	.set L$set$467,LCFI278-LCFI277
	.long L$set$467
	.byte	0xd
	.uleb128 0x1d
	.byte	0x4
	.set L$set$468,LCFI279-LCFI278
	.long L$set$468
	.byte	0x93
	.uleb128 0x6
	.byte	0x94
	.uleb128 0x5
	.byte	0x4
	.set L$set$469,LCFI280-LCFI279
	.long L$set$469
	.byte	0xde
	.byte	0xdd
	.byte	0xd3
	.byte	0xd4
	.byte	0xc
	.uleb128 0x1f
	.uleb128 0
	.align	3
LEFDE187:
LSFDE189:
	.set L$set$470,LEFDE189-LASFDE189
	.long L$set$470
LASFDE189:
	.long	LASFDE189-EH_frame1
	.quad	LFB3204-.
	.set L$set$471,LFE3204-LFB3204
	.quad L$set$471
	.uleb128 0x8
	.quad	0
	.byte	0x4
	.set L$set$472,LCFI281-LFB3204
	.long L$set$472
	.byte	0xe
	.uleb128 0x10
	.byte	0x4
	.set L$set$473,LCFI282-LCFI281
	.long L$set$473
	.byte	0xe
	.uleb128 0
	.align	3
LEFDE189:
LSFDE191:
	.set L$set$474,LEFDE191-LASFDE191
	.long L$set$474
LASFDE191:
	.long	LASFDE191-EH_frame1
	.quad	LFB3206-.
	.set L$set$475,LFE3206-LFB3206
	.quad L$set$475
	.uleb128 0x8
	.quad	0
	.byte	0x4
	.set L$set$476,LCFI283-LFB3206
	.long L$set$476
	.byte	0xe
	.uleb128 0x50
	.byte	0x9d
	.uleb128 0xa
	.byte	0x9e
	.uleb128 0x9
	.byte	0x4
	.set L$set$477,LCFI284-LCFI283
	.long L$set$477
	.byte	0xd
	.uleb128 0x1d
	.byte	0x4
	.set L$set$478,LCFI285-LCFI284
	.long L$set$478
	.byte	0xde
	.byte	0xdd
	.byte	0xc
	.uleb128 0x1f
	.uleb128 0
	.align	3
LEFDE191:
LSFDE193:
	.set L$set$479,LEFDE193-LASFDE193
	.long L$set$479
LASFDE193:
	.long	LASFDE193-EH_frame1
	.quad	LFB3207-.
	.set L$set$480,LFE3207-LFB3207
	.quad L$set$480
	.uleb128 0x8
	.quad	0
	.byte	0x4
	.set L$set$481,LCFI286-LFB3207
	.long L$set$481
	.byte	0xe
	.uleb128 0x40
	.byte	0x9d
	.uleb128 0x8
	.byte	0x9e
	.uleb128 0x7
	.byte	0x4
	.set L$set$482,LCFI287-LCFI286
	.long L$set$482
	.byte	0xd
	.uleb128 0x1d
	.byte	0x4
	.set L$set$483,LCFI288-LCFI287
	.long L$set$483
	.byte	0xde
	.byte	0xdd
	.byte	0xc
	.uleb128 0x1f
	.uleb128 0
	.align	3
LEFDE193:
LSFDE195:
	.set L$set$484,LEFDE195-LASFDE195
	.long L$set$484
LASFDE195:
	.long	LASFDE195-EH_frame1
	.quad	LFB3209-.
	.set L$set$485,LFE3209-LFB3209
	.quad L$set$485
	.uleb128 0x8
	.quad	0
	.byte	0x4
	.set L$set$486,LCFI289-LFB3209
	.long L$set$486
	.byte	0xe
	.uleb128 0x10
	.byte	0x4
	.set L$set$487,LCFI290-LCFI289
	.long L$set$487
	.byte	0xe
	.uleb128 0
	.align	3
LEFDE195:
LSFDE197:
	.set L$set$488,LEFDE197-LASFDE197
	.long L$set$488
LASFDE197:
	.long	LASFDE197-EH_frame1
	.quad	LFB3236-.
	.set L$set$489,LFE3236-LFB3236
	.quad L$set$489
	.uleb128 0x8
	.quad	0
	.byte	0x4
	.set L$set$490,LCFI291-LFB3236
	.long L$set$490
	.byte	0xe
	.uleb128 0x10
	.byte	0x4
	.set L$set$491,LCFI292-LCFI291
	.long L$set$491
	.byte	0xe
	.uleb128 0
	.align	3
LEFDE197:
LSFDE199:
	.set L$set$492,LEFDE199-LASFDE199
	.long L$set$492
LASFDE199:
	.long	LASFDE199-EH_frame1
	.quad	LFB3237-.
	.set L$set$493,LFE3237-LFB3237
	.quad L$set$493
	.uleb128 0x8
	.quad	0
	.byte	0x4
	.set L$set$494,LCFI293-LFB3237
	.long L$set$494
	.byte	0xe
	.uleb128 0x40
	.byte	0x9d
	.uleb128 0x8
	.byte	0x9e
	.uleb128 0x7
	.byte	0x4
	.set L$set$495,LCFI294-LCFI293
	.long L$set$495
	.byte	0xd
	.uleb128 0x1d
	.byte	0x4
	.set L$set$496,LCFI295-LCFI294
	.long L$set$496
	.byte	0xde
	.byte	0xdd
	.byte	0xc
	.uleb128 0x1f
	.uleb128 0
	.align	3
LEFDE199:
LSFDE201:
	.set L$set$497,LEFDE201-LASFDE201
	.long L$set$497
LASFDE201:
	.long	LASFDE201-EH_frame1
	.quad	LFB3239-.
	.set L$set$498,LFE3239-LFB3239
	.quad L$set$498
	.uleb128 0x8
	.quad	0
	.byte	0x4
	.set L$set$499,LCFI296-LFB3239
	.long L$set$499
	.byte	0xe
	.uleb128 0x10
	.byte	0x4
	.set L$set$500,LCFI297-LCFI296
	.long L$set$500
	.byte	0xe
	.uleb128 0
	.align	3
LEFDE201:
LSFDE203:
	.set L$set$501,LEFDE203-LASFDE203
	.long L$set$501
LASFDE203:
	.long	LASFDE203-EH_frame1
	.quad	LFB3240-.
	.set L$set$502,LFE3240-LFB3240
	.quad L$set$502
	.uleb128 0x8
	.quad	0
	.byte	0x4
	.set L$set$503,LCFI298-LFB3240
	.long L$set$503
	.byte	0xe
	.uleb128 0x40
	.byte	0x9d
	.uleb128 0x8
	.byte	0x9e
	.uleb128 0x7
	.byte	0x4
	.set L$set$504,LCFI299-LCFI298
	.long L$set$504
	.byte	0xd
	.uleb128 0x1d
	.byte	0x4
	.set L$set$505,LCFI300-LCFI299
	.long L$set$505
	.byte	0xde
	.byte	0xdd
	.byte	0xc
	.uleb128 0x1f
	.uleb128 0
	.align	3
LEFDE203:
LSFDE205:
	.set L$set$506,LEFDE205-LASFDE205
	.long L$set$506
LASFDE205:
	.long	LASFDE205-EH_frame1
	.quad	LFB3241-.
	.set L$set$507,LFE3241-LFB3241
	.quad L$set$507
	.uleb128 0x8
	.quad	0
	.byte	0x4
	.set L$set$508,LCFI301-LFB3241
	.long L$set$508
	.byte	0xe
	.uleb128 0x20
	.byte	0x9d
	.uleb128 0x4
	.byte	0x9e
	.uleb128 0x3
	.byte	0x4
	.set L$set$509,LCFI302-LCFI301
	.long L$set$509
	.byte	0xd
	.uleb128 0x1d
	.byte	0x4
	.set L$set$510,LCFI303-LCFI302
	.long L$set$510
	.byte	0xde
	.byte	0xdd
	.byte	0xc
	.uleb128 0x1f
	.uleb128 0
	.align	3
LEFDE205:
LSFDE207:
	.set L$set$511,LEFDE207-LASFDE207
	.long L$set$511
LASFDE207:
	.long	LASFDE207-EH_frame1
	.quad	LFB3242-.
	.set L$set$512,LFE3242-LFB3242
	.quad L$set$512
	.uleb128 0x8
	.quad	0
	.byte	0x4
	.set L$set$513,LCFI304-LFB3242
	.long L$set$513
	.byte	0xe
	.uleb128 0x30
	.byte	0x9d
	.uleb128 0x6
	.byte	0x9e
	.uleb128 0x5
	.byte	0x4
	.set L$set$514,LCFI305-LCFI304
	.long L$set$514
	.byte	0xd
	.uleb128 0x1d
	.byte	0x4
	.set L$set$515,LCFI306-LCFI305
	.long L$set$515
	.byte	0xde
	.byte	0xdd
	.byte	0xc
	.uleb128 0x1f
	.uleb128 0
	.align	3
LEFDE207:
LSFDE209:
	.set L$set$516,LEFDE209-LASFDE209
	.long L$set$516
LASFDE209:
	.long	LASFDE209-EH_frame1
	.quad	LFB3243-.
	.set L$set$517,LFE3243-LFB3243
	.quad L$set$517
	.uleb128 0x8
	.quad	0
	.byte	0x4
	.set L$set$518,LCFI307-LFB3243
	.long L$set$518
	.byte	0xe
	.uleb128 0x30
	.byte	0x9d
	.uleb128 0x6
	.byte	0x9e
	.uleb128 0x5
	.byte	0x4
	.set L$set$519,LCFI308-LCFI307
	.long L$set$519
	.byte	0xd
	.uleb128 0x1d
	.byte	0x4
	.set L$set$520,LCFI309-LCFI308
	.long L$set$520
	.byte	0x93
	.uleb128 0x4
	.byte	0x4
	.set L$set$521,LCFI310-LCFI309
	.long L$set$521
	.byte	0xde
	.byte	0xdd
	.byte	0xd3
	.byte	0xc
	.uleb128 0x1f
	.uleb128 0
	.align	3
LEFDE209:
LSFDE211:
	.set L$set$522,LEFDE211-LASFDE211
	.long L$set$522
LASFDE211:
	.long	LASFDE211-EH_frame1
	.quad	LFB3248-.
	.set L$set$523,LFE3248-LFB3248
	.quad L$set$523
	.uleb128 0x8
	.quad	0
	.byte	0x4
	.set L$set$524,LCFI311-LFB3248
	.long L$set$524
	.byte	0xe
	.uleb128 0x10
	.byte	0x4
	.set L$set$525,LCFI312-LCFI311
	.long L$set$525
	.byte	0xe
	.uleb128 0
	.align	3
LEFDE211:
LSFDE213:
	.set L$set$526,LEFDE213-LASFDE213
	.long L$set$526
LASFDE213:
	.long	LASFDE213-EH_frame1
	.quad	LFB3249-.
	.set L$set$527,LFE3249-LFB3249
	.quad L$set$527
	.uleb128 0x8
	.quad	0
	.byte	0x4
	.set L$set$528,LCFI313-LFB3249
	.long L$set$528
	.byte	0xe
	.uleb128 0x30
	.byte	0x9d
	.uleb128 0x6
	.byte	0x9e
	.uleb128 0x5
	.byte	0x4
	.set L$set$529,LCFI314-LCFI313
	.long L$set$529
	.byte	0xd
	.uleb128 0x1d
	.byte	0x4
	.set L$set$530,LCFI315-LCFI314
	.long L$set$530
	.byte	0xde
	.byte	0xdd
	.byte	0xc
	.uleb128 0x1f
	.uleb128 0
	.align	3
LEFDE213:
LSFDE215:
	.set L$set$531,LEFDE215-LASFDE215
	.long L$set$531
LASFDE215:
	.long	LASFDE215-EH_frame1
	.quad	LFB3263-.
	.set L$set$532,LFE3263-LFB3263
	.quad L$set$532
	.uleb128 0x8
	.quad	0
	.byte	0x4
	.set L$set$533,LCFI316-LFB3263
	.long L$set$533
	.byte	0xe
	.uleb128 0x30
	.byte	0x9d
	.uleb128 0x6
	.byte	0x9e
	.uleb128 0x5
	.byte	0x4
	.set L$set$534,LCFI317-LCFI316
	.long L$set$534
	.byte	0xd
	.uleb128 0x1d
	.byte	0x4
	.set L$set$535,LCFI318-LCFI317
	.long L$set$535
	.byte	0xde
	.byte	0xdd
	.byte	0xc
	.uleb128 0x1f
	.uleb128 0
	.align	3
LEFDE215:
LSFDE217:
	.set L$set$536,LEFDE217-LASFDE217
	.long L$set$536
LASFDE217:
	.long	LASFDE217-EH_frame1
	.quad	LFB3265-.
	.set L$set$537,LFE3265-LFB3265
	.quad L$set$537
	.uleb128 0x8
	.quad	0
	.byte	0x4
	.set L$set$538,LCFI319-LFB3265
	.long L$set$538
	.byte	0xe
	.uleb128 0x40
	.byte	0x9d
	.uleb128 0x8
	.byte	0x9e
	.uleb128 0x7
	.byte	0x4
	.set L$set$539,LCFI320-LCFI319
	.long L$set$539
	.byte	0xd
	.uleb128 0x1d
	.byte	0x4
	.set L$set$540,LCFI321-LCFI320
	.long L$set$540
	.byte	0x93
	.uleb128 0x6
	.byte	0x4
	.set L$set$541,LCFI322-LCFI321
	.long L$set$541
	.byte	0xde
	.byte	0xdd
	.byte	0xd3
	.byte	0xc
	.uleb128 0x1f
	.uleb128 0
	.align	3
LEFDE217:
LSFDE219:
	.set L$set$542,LEFDE219-LASFDE219
	.long L$set$542
LASFDE219:
	.long	LASFDE219-EH_frame1
	.quad	LFB3270-.
	.set L$set$543,LFE3270-LFB3270
	.quad L$set$543
	.uleb128 0x8
	.quad	0
	.byte	0x4
	.set L$set$544,LCFI323-LFB3270
	.long L$set$544
	.byte	0xe
	.uleb128 0x40
	.byte	0x9d
	.uleb128 0x8
	.byte	0x9e
	.uleb128 0x7
	.byte	0x4
	.set L$set$545,LCFI324-LCFI323
	.long L$set$545
	.byte	0xd
	.uleb128 0x1d
	.byte	0x4
	.set L$set$546,LCFI325-LCFI324
	.long L$set$546
	.byte	0xde
	.byte	0xdd
	.byte	0xc
	.uleb128 0x1f
	.uleb128 0
	.align	3
LEFDE219:
LSFDE221:
	.set L$set$547,LEFDE221-LASFDE221
	.long L$set$547
LASFDE221:
	.long	LASFDE221-EH_frame1
	.quad	LFB3271-.
	.set L$set$548,LFE3271-LFB3271
	.quad L$set$548
	.uleb128 0x8
	.quad	0
	.byte	0x4
	.set L$set$549,LCFI326-LFB3271
	.long L$set$549
	.byte	0xe
	.uleb128 0x10
	.byte	0x4
	.set L$set$550,LCFI327-LCFI326
	.long L$set$550
	.byte	0xe
	.uleb128 0
	.align	3
LEFDE221:
LSFDE223:
	.set L$set$551,LEFDE223-LASFDE223
	.long L$set$551
LASFDE223:
	.long	LASFDE223-EH_frame1
	.quad	LFB3272-.
	.set L$set$552,LFE3272-LFB3272
	.quad L$set$552
	.uleb128 0x8
	.quad	0
	.byte	0x4
	.set L$set$553,LCFI328-LFB3272
	.long L$set$553
	.byte	0xe
	.uleb128 0x40
	.byte	0x9d
	.uleb128 0x8
	.byte	0x9e
	.uleb128 0x7
	.byte	0x4
	.set L$set$554,LCFI329-LCFI328
	.long L$set$554
	.byte	0xd
	.uleb128 0x1d
	.byte	0x4
	.set L$set$555,LCFI330-LCFI329
	.long L$set$555
	.byte	0x93
	.uleb128 0x6
	.byte	0x94
	.uleb128 0x5
	.byte	0x4
	.set L$set$556,LCFI331-LCFI330
	.long L$set$556
	.byte	0xde
	.byte	0xdd
	.byte	0xd3
	.byte	0xd4
	.byte	0xc
	.uleb128 0x1f
	.uleb128 0
	.align	3
LEFDE223:
LSFDE225:
	.set L$set$557,LEFDE225-LASFDE225
	.long L$set$557
LASFDE225:
	.long	LASFDE225-EH_frame1
	.quad	LFB3276-.
	.set L$set$558,LFE3276-LFB3276
	.quad L$set$558
	.uleb128 0x8
	.quad	0
	.byte	0x4
	.set L$set$559,LCFI332-LFB3276
	.long L$set$559
	.byte	0xe
	.uleb128 0x20
	.byte	0x9d
	.uleb128 0x4
	.byte	0x9e
	.uleb128 0x3
	.byte	0x4
	.set L$set$560,LCFI333-LCFI332
	.long L$set$560
	.byte	0xd
	.uleb128 0x1d
	.byte	0x4
	.set L$set$561,LCFI334-LCFI333
	.long L$set$561
	.byte	0xde
	.byte	0xdd
	.byte	0xc
	.uleb128 0x1f
	.uleb128 0
	.align	3
LEFDE225:
LSFDE227:
	.set L$set$562,LEFDE227-LASFDE227
	.long L$set$562
LASFDE227:
	.long	LASFDE227-EH_frame1
	.quad	LFB3277-.
	.set L$set$563,LFE3277-LFB3277
	.quad L$set$563
	.uleb128 0x8
	.quad	0
	.byte	0x4
	.set L$set$564,LCFI335-LFB3277
	.long L$set$564
	.byte	0xe
	.uleb128 0x10
	.byte	0x4
	.set L$set$565,LCFI336-LCFI335
	.long L$set$565
	.byte	0xe
	.uleb128 0
	.align	3
LEFDE227:
LSFDE229:
	.set L$set$566,LEFDE229-LASFDE229
	.long L$set$566
LASFDE229:
	.long	LASFDE229-EH_frame1
	.quad	LFB3278-.
	.set L$set$567,LFE3278-LFB3278
	.quad L$set$567
	.uleb128 0x8
	.quad	0
	.byte	0x4
	.set L$set$568,LCFI337-LFB3278
	.long L$set$568
	.byte	0xe
	.uleb128 0x30
	.byte	0x9d
	.uleb128 0x6
	.byte	0x9e
	.uleb128 0x5
	.byte	0x4
	.set L$set$569,LCFI338-LCFI337
	.long L$set$569
	.byte	0xd
	.uleb128 0x1d
	.byte	0x4
	.set L$set$570,LCFI339-LCFI338
	.long L$set$570
	.byte	0xde
	.byte	0xdd
	.byte	0xc
	.uleb128 0x1f
	.uleb128 0
	.align	3
LEFDE229:
LSFDE231:
	.set L$set$571,LEFDE231-LASFDE231
	.long L$set$571
LASFDE231:
	.long	LASFDE231-EH_frame1
	.quad	LFB3279-.
	.set L$set$572,LFE3279-LFB3279
	.quad L$set$572
	.uleb128 0x8
	.quad	0
	.byte	0x4
	.set L$set$573,LCFI340-LFB3279
	.long L$set$573
	.byte	0xe
	.uleb128 0x10
	.byte	0x4
	.set L$set$574,LCFI341-LCFI340
	.long L$set$574
	.byte	0xe
	.uleb128 0
	.align	3
LEFDE231:
LSFDE233:
	.set L$set$575,LEFDE233-LASFDE233
	.long L$set$575
LASFDE233:
	.long	LASFDE233-EH_frame1
	.quad	LFB3280-.
	.set L$set$576,LFE3280-LFB3280
	.quad L$set$576
	.uleb128 0x8
	.quad	0
	.byte	0x4
	.set L$set$577,LCFI342-LFB3280
	.long L$set$577
	.byte	0xe
	.uleb128 0x30
	.byte	0x9d
	.uleb128 0x6
	.byte	0x9e
	.uleb128 0x5
	.byte	0x4
	.set L$set$578,LCFI343-LCFI342
	.long L$set$578
	.byte	0xd
	.uleb128 0x1d
	.byte	0x4
	.set L$set$579,LCFI344-LCFI343
	.long L$set$579
	.byte	0xde
	.byte	0xdd
	.byte	0xc
	.uleb128 0x1f
	.uleb128 0
	.align	3
LEFDE233:
LSFDE235:
	.set L$set$580,LEFDE235-LASFDE235
	.long L$set$580
LASFDE235:
	.long	LASFDE235-EH_frame1
	.quad	LFB3281-.
	.set L$set$581,LFE3281-LFB3281
	.quad L$set$581
	.uleb128 0x8
	.quad	0
	.byte	0x4
	.set L$set$582,LCFI345-LFB3281
	.long L$set$582
	.byte	0xe
	.uleb128 0x40
	.byte	0x9d
	.uleb128 0x8
	.byte	0x9e
	.uleb128 0x7
	.byte	0x4
	.set L$set$583,LCFI346-LCFI345
	.long L$set$583
	.byte	0xd
	.uleb128 0x1d
	.byte	0x4
	.set L$set$584,LCFI347-LCFI346
	.long L$set$584
	.byte	0xde
	.byte	0xdd
	.byte	0xc
	.uleb128 0x1f
	.uleb128 0
	.align	3
LEFDE235:
LSFDE237:
	.set L$set$585,LEFDE237-LASFDE237
	.long L$set$585
LASFDE237:
	.long	LASFDE237-EH_frame1
	.quad	LFB3282-.
	.set L$set$586,LFE3282-LFB3282
	.quad L$set$586
	.uleb128 0x8
	.quad	0
	.byte	0x4
	.set L$set$587,LCFI348-LFB3282
	.long L$set$587
	.byte	0xe
	.uleb128 0x10
	.byte	0x4
	.set L$set$588,LCFI349-LCFI348
	.long L$set$588
	.byte	0xe
	.uleb128 0
	.align	3
LEFDE237:
LSFDE239:
	.set L$set$589,LEFDE239-LASFDE239
	.long L$set$589
LASFDE239:
	.long	LASFDE239-EH_frame1
	.quad	LFB3283-.
	.set L$set$590,LFE3283-LFB3283
	.quad L$set$590
	.uleb128 0x8
	.quad	0
	.byte	0x4
	.set L$set$591,LCFI350-LFB3283
	.long L$set$591
	.byte	0xe
	.uleb128 0x10
	.byte	0x9d
	.uleb128 0x2
	.byte	0x9e
	.uleb128 0x1
	.byte	0x4
	.set L$set$592,LCFI351-LCFI350
	.long L$set$592
	.byte	0xd
	.uleb128 0x1d
	.byte	0x4
	.set L$set$593,LCFI352-LCFI351
	.long L$set$593
	.byte	0xde
	.byte	0xdd
	.byte	0xc
	.uleb128 0x1f
	.uleb128 0
	.align	3
LEFDE239:
LSFDE241:
	.set L$set$594,LEFDE241-LASFDE241
	.long L$set$594
LASFDE241:
	.long	LASFDE241-EH_frame1
	.quad	LFB3284-.
	.set L$set$595,LFE3284-LFB3284
	.quad L$set$595
	.uleb128 0x8
	.quad	0
	.byte	0x4
	.set L$set$596,LCFI353-LFB3284
	.long L$set$596
	.byte	0xe
	.uleb128 0x10
	.byte	0x9d
	.uleb128 0x2
	.byte	0x9e
	.uleb128 0x1
	.byte	0x4
	.set L$set$597,LCFI354-LCFI353
	.long L$set$597
	.byte	0xd
	.uleb128 0x1d
	.byte	0x4
	.set L$set$598,LCFI355-LCFI354
	.long L$set$598
	.byte	0xde
	.byte	0xdd
	.byte	0xc
	.uleb128 0x1f
	.uleb128 0
	.align	3
LEFDE241:
	.private_extern ___dso_handle
	.ident	"GCC: (Homebrew GCC 14.2.0_1) 14.2.0"
	.mod_init_func
_Mod.init:
	.align	3
	.xword	__GLOBAL__sub_I_pi.cpp
	.subsections_via_symbols
